(lp0
(dp1
S'id'
p2
VAFRI0710A
p3
sS'isbns'
p4
(lp5
S'9780804776608'
p6
aS'9780252079443'
p7
aS'9780822354307'
p8
aS'9780857850423'
p9
aS'9780807859513'
p10
aS'9780822355380'
p11
aS'9780896802438'
p12
asa(dp13
g2
VAFRI0760A
p14
sg4
(lp15
sa(dp16
g2
VAFRI0990
p17
sg4
(lp18
sa(dp19
g2
VAFRI1020C
p20
sg4
(lp21
sa(dp22
g2
VAFRI1050A
p23
sg4
(lp24
sa(dp25
g2
VAFRI1050D
p26
sg4
(lp27
sa(dp28
g2
VAFRI1050E
p29
sg4
(lp30
sa(dp31
g2
VAFRI1050G
p32
sg4
(lp33
sa(dp34
g2
VAFRI1050Q
p35
sg4
(lp36
S'9780974635330'
p37
aS'9781608195213'
p38
aS'9781555973926'
p39
aS'9781555976071'
p40
aS'9780062005595'
p41
aS'9780375711619'
p42
aS'9780385470148'
p43
aS'9780691140186'
p44
aS'9780307267641'
p45
aS'9781559361354'
p46
aS'9780679756941'
p47
asa(dp48
g2
VAFRI1050R
p49
sg4
(lp50
S'9780446698900'
p51
aS'9780306808555'
p52
aS'9781583226988'
p53
aS'9780375706714'
p54
aS'9780375706707'
p55
asa(dp56
g2
VAFRI1060E
p57
sg4
(lp58
sa(dp59
g2
VAFRI1060V
p60
sg4
(lp61
S'9781592215751'
p62
aS'9780807871034'
p63
aS'9780807859728'
p64
aS'9780860915850'
p65
asa(dp66
g2
VAFRI1090
p67
sg4
(lp68
S'9780230337558'
p69
aS'9780809089246'
p70
aS'9780807835494'
p71
aS'9781578061549'
p72
aS'9780742551091'
p73
aS'9780816676484'
p74
asa(dp75
g2
VAFRI1190
p76
sg4
(lp77
sa(dp78
g2
VAFRI1260
p79
sg4
(lp80
S'9780807859599'
p81
aS'9780814743317'
p82
aS'9780807835135'
p83
aS'9780807000458'
p84
aS'9780807849231'
p85
asa(dp86
g2
VAFRI1360
p87
sg4
(lp88
S'9781400033416'
p89
aS'9780822355632'
p90
aS'9780812215731'
p91
aS'9780195063233'
p92
aS'9780253204684'
p93
aS'9780252076572'
p94
aS'9780691027937'
p95
aS'9780684856575'
p96
aS'9781583226957'
p97
aS'9780679724674'
p98
aS'9780140280494'
p99
aS'9780802143006'
p100
aS'9781583670255'
p101
aS'9781558613980'
p102
asa(dp103
g2
VAFRI1540
p104
sg4
(lp105
sa(dp106
g2
VAFRI1640
p107
sg4
(lp108
sa(dp109
g2
VAFRI1955
p110
sg4
(lp111
S'9781400033423'
p112
aS'9780618257751'
p113
aS'9780312421748'
p114
aS'9780679446231'
p115
aS'9780395877500'
p116
asa(dp117
g2
VAFRI2002
p118
sg4
(lp119
sa(dp120
g2
VAFRI2102
p121
sg4
(lp122
sa(dp123
g2
VAFRI2104
p124
sg4
(lp125
S'9780822336457'
p126
aS'9780252079535'
p127
aS'9780807043110'
p128
aS'9781558760196'
p129
aS'9780822347774'
p130
aS'9780807871034'
p131
aS'9780822350507'
p132
aS'9780253220950'
p133
aS'9780226923031'
p134
aS'9780816677764'
p135
aS'9780691059440'
p136
aS'9780822349501'
p137
aS'9780816647781'
p138
aS'9780231131636'
p139
aS'9780307455925'
p140
aS'9780520249295'
p141
aS'9780822350866'
p142
aS'9780813036755'
p143
asa(dp144
g2
VAFRI2500
p145
sg4
(lp146
S'9780691028859'
p147
aS'9780822351610'
p148
aS'9780415095372'
p149
aS'9780804756303'
p150
aS'9780520280083'
p151
aS'9781469610689'
p152
aS'9780674062115'
p153
aS'9780199772353'
p154
aS'9780745631257'
p155
aS'9780674064232'
p156
aS'9780674021808'
p157
aS'9780814736944'
p158
aS'9781844671458'
p159
aS'9780195313109'
p160
aS'9780300080674'
p161
aS'9780520270879'
p162
asa(dp163
g2
VAMST0150K
p164
sg4
(lp165
S'9780822352891'
p166
aS'9780814744307'
p167
aS'9781438437668'
p168
aS'9780816637713'
p169
asa(dp170
g2
VAMST0191Q
p171
sg4
(lp172
S'9781439158654'
p173
aS'9780470448335'
p174
aS'9780801431869'
p175
aS'9780877224518'
p176
aS'9780143120780'
p177
asa(dp178
g2
VAMST0191R
p179
sg4
(lp180
sa(dp181
g2
VAMST0191S
p182
sg4
(lp183
S'9780691050041'
p184
aS'9780195314403'
p185
aS'9780857028884'
p186
aS'9780520244993'
p187
aS'9780807834886'
p188
asa(dp189
g2
VAMST1010
p190
sg4
(lp191
S'9780061958809'
p192
aS'9780439023528'
p193
aS'9781442201439'
p194
aS'9781563893421'
p195
aS'9780312429232'
p196
aS'9781595586438'
p197
aS'9780143105466'
p198
aS'9780451209146'
p199
asa(dp200
g2
VAMST1550
p201
sg4
(lp202
sa(dp203
g2
VAMST1611M
p204
sg4
(lp205
S'9780393007695'
p206
aS'9780801864964'
p207
aS'9780307278449'
p208
aS'9780486419312'
p209
aS'9780520235953'
p210
aS'9780679721864'
p211
aS'9780801852473'
p212
aS'9780820341743'
p213
aS'9780300059915'
p214
aS'9780691009476'
p215
aS'9780465087303'
p216
aS'9780807063156'
p217
aS'9780679748403'
p218
asa(dp219
g2
VAMST1611Z
p220
sg4
(lp221
S'9780824809560'
p222
aS'9780801828720'
p223
aS'9780674011113'
p224
aS'9780822952732'
p225
asa(dp226
g2
VAMST1700I
p227
sg4
(lp228
sa(dp229
g2
VAMST1800
p230
sg4
(lp231
S'9780226065663'
p232
asa(dp233
g2
VAMST1900A
p234
sg4
(lp235
sa(dp236
g2
VAMST1900C
p237
sg4
(lp238
S'9780143105763'
p239
aS'9780374531157'
p240
aS'9780807858905'
p241
aS'9780819561909'
p242
aS'9780140437492'
p243
asa(dp244
g2
VAMST1903G
p245
sg4
(lp246
S'9780822352891'
p247
aS'9780804011174'
p248
asa(dp249
g2
VAMST1903J
p250
sg4
(lp251
sa(dp252
g2
VAMST1904F
p253
sg4
(lp254
S'9780143117506'
p255
aS'9780891418764'
p256
aS'9780452290006'
p257
aS'9780393322101'
p258
aS'9781880684313'
p259
asa(dp260
g2
VAMST1904M
p261
sg4
(lp262
sa(dp263
g2
VAMST1904V
p264
sg4
(lp265
S'9781859843826'
p266
aS'9780822334422'
p267
aS'9781107600782'
p268
aS'9780674030688'
p269
aS'9781609800871'
p270
aS'9780140092332'
p271
aS'9780814752449'
p272
aS'9780520271692'
p273
aS'9780807043110'
p274
asa(dp275
g2
VAMST1904X
p276
sg4
(lp277
S'9780231130943'
p278
aS'9780520225923'
p279
aS'9780801867941'
p280
aS'9780739118207'
p281
aS'9780226260280'
p282
asa(dp283
g2
VAMST1905C
p284
sg4
(lp285
S'BSZMJLZMRHZM'
p286
aS'9780465018192'
p287
aS'9781558499119'
p288
aS'9780316836319'
p289
aS'9780195328370'
p290
asa(dp291
g2
VAMST2220A
p292
sg4
(lp293
sa(dp294
g2
VAMST2220B
p295
sg4
(lp296
S'9780415954426'
p297
aS'9780812221534'
p298
aS'9780199927586'
p299
aS'9780816645220'
p300
aS'9780520248113'
p301
aS'9780199930340'
p302
aS'9780520274655'
p303
aS'9780199874064'
p304
aS'9781592132355'
p305
aS'9780812970388'
p306
aS'9780226322445'
p307
aS'9780226745640'
p308
aS'9780199975525'
p309
asa(dp310
g2
VAMST2220F
p311
sg4
(lp312
S'9780674022607'
p313
aS'9780809001460'
p314
aS'9780807853993'
p315
aS'9780631234609'
p316
asa(dp317
g2
VAMST2540
p318
sg4
(lp319
sa(dp320
g2
VAMST2670
p321
sg4
(lp322
sa(dp323
g2
VAMST2680
p324
sg4
(lp325
sa(dp326
g2
VAMST2690
p327
sg4
(lp328
S'9780971742604'
p329
aS'9780759107588'
p330
aS'9780977326402'
p331
asa(dp332
g2
VAMST2691
p333
sg4
(lp334
S'9780061923906'
p335
aS'9780375712258'
p336
aS'9780820343488'
p337
aS'9781556591730'
p338
aS'9781934414903'
p339
asa(dp340
g2
VANTH0066N
p341
sg4
(lp342
S'9780520250130'
p343
aS'9780822354314'
p344
aS'9780872863132'
p345
aS'9780142001226'
p346
aS'9780520244139'
p347
aS'9780803262171'
p348
asa(dp349
g2
VANTH0100
p350
sg4
(lp351
S'9780385474542'
p352
aS'9781857885088'
p353
aS'9780521017114'
p354
aS'9780801475627'
p355
aS'9780520245600'
p356
aS'9780226108834'
p357
aS'9780520224735'
p358
aS'9780520242784'
p359
asa(dp360
g2
VANTH0450
p361
sg4
(lp362
S'9780415503891'
p363
aS'9780745634197'
p364
aS'9780521691307'
p365
asa(dp366
g2
VANTH0500
p367
sg4
(lp368
S'9781111829995'
p369
asa(dp370
g2
VANTH1100
p371
sg4
(lp372
S'9780618773572'
p373
aS'9781577664895'
p374
aS'9780801486852'
p375
asa(dp376
g2
VANTH1110
p377
sg4
(lp378
S'9780822353669'
p379
aS'9780226893273'
p380
aS'9780226113319'
p381
aS'9780691136479'
p382
asa(dp383
g2
VANTH1125
p384
sg4
(lp385
S'9780742503298'
p386
aS'9781598743739'
p387
asa(dp388
g2
VANTH1151
p389
sg4
(lp390
S'9780520258518'
p391
aS'9780804754774'
p392
aS'9780881332070'
p393
aS'9780520244542'
p394
aS'9780520271760'
p395
aS'9780691124216'
p396
aS'9780804781411'
p397
aS'9780804783293'
p398
aS'9780822338956'
p399
asa(dp400
g2
VANTH1221
p401
sg4
(lp402
S'9781405152525'
p403
aS'9780520271487'
p404
asa(dp405
g2
VANTH1232
p406
sg4
(lp407
S'9780231100335'
p408
aS'9780805044577'
p409
aS'9780822350774'
p410
asa(dp411
g2
VANTH1240
p412
sg4
(lp413
sa(dp414
g2
VANTH1301
p415
sg4
(lp416
S'9780871544544'
p417
aS'9780534626495'
p418
aS'9780195160963'
p419
aS'9780231111058'
p420
aS'9781583229187'
p421
aS'9780801475931'
p422
aS'9781571810977'
p423
aS'9780817356187'
p424
asa(dp425
g2
VANTH1310
p426
sg4
(lp427
S'9780813544571'
p428
aS'9780520271760'
p429
aS'9780801886454'
p430
aS'9780521804691'
p431
aS'9780226108834'
p432
aS'9780520229136'
p433
aS'9780822353423'
p434
aS'9780520271999'
p435
aS'9780691157399'
p436
asa(dp437
g2
VANTH1320
p438
sg4
(lp439
S'9780679727835'
p440
aS'9780745635804'
p441
aS'9780312429621'
p442
aS'9780520232624'
p443
aS'9780804776103'
p444
aS'9780253211620'
p445
aS'9781856496063'
p446
asa(dp447
g2
VANTH1322
p448
sg4
(lp449
sa(dp450
g2
VANTH1323
p451
sg4
(lp452
S'BSNJVHMZLKZJ'
p453
aS'9780317563283'
p454
aS'9780691019437'
p455
aS'9780195636970'
p456
aS'BSZDKZZME4OW'
p457
aS'9780824808457'
p458
aS'9788171670468'
p459
asa(dp460
g2
VANTH1411
p461
sg4
(lp462
S'9780745330426'
p463
asa(dp464
g2
VANTH1552
p465
sg4
(lp466
S'9780521010702'
p467
aS'9780691120652'
p468
aS'9780300153217'
p469
aS'9780811218870'
p470
aS'9781598743340'
p471
aS'9781439909317'
p472
aS'9780674072343'
p473
aS'9780520250628'
p474
aS'9780520004597'
p475
aS'9780674066052'
p476
aS'9780674036352'
p477
aS'9781598743463'
p478
aS'9780307275202'
p479
aS'9780822332725'
p480
aS'9780226039053'
p481
asa(dp482
g2
VANTH1623
p483
sg4
(lp484
sa(dp485
g2
VANTH1720
p486
sg4
(lp487
S'9780123741349'
p488
asa(dp489
g2
VANTH1810
p490
sg4
(lp491
S'9780415559119'
p492
aS'9781844670864'
p493
aS'9781405184533'
p494
aS'9780292715349'
p495
aS'9780674510418'
p496
aS'9780674550988'
p497
aS'9780679724698'
p498
aS'9780262581080'
p499
aS'9780691144504'
p500
aS'9780826317247'
p501
asa(dp502
g2
VANTH1901
p503
sg4
(lp504
sa(dp505
g2
VANTH1910G
p506
sg4
(lp507
S'9780231112314'
p508
aS'9780226877884'
p509
aS'9780300043624'
p510
aS'9781844670864'
p511
asa(dp512
g2
VANTH2010
p513
sg4
(lp514
S'9780807871331'
p515
aS'9780521599269'
p516
aS'9780816656318'
p517
aS'9780415289955'
p518
aS'9780226504506'
p519
aS'9780691149806'
p520
aS'9780822348061'
p521
aS'9780745664804'
p522
aS'9780674212770'
p523
asa(dp524
g2
VANTH2020
p525
sg4
(lp526
sa(dp527
g2
VANTH2050
p528
sg4
(lp529
S'9780812979329'
p530
aS'9781400067558'
p531
aS'9780520224803'
p532
aS'9780691000510'
p533
aS'9780822348061'
p534
aS'9780520250277'
p535
aS'9780674766914'
p536
aS'9780226304908'
p537
aS'9780195372939'
p538
aS'9780671640996'
p539
aS'9780520224735'
p540
aS'9780143106258'
p541
asa(dp542
g2
VANTH2130
p543
sg4
(lp544
S'9780822316909'
p545
aS'9780520274853'
p546
aS'9780231141529'
p547
aS'9780691151663'
p548
aS'9780822353355'
p549
aS'9780312203603'
p550
aS'9780822339205'
p551
asa(dp552
g2
VANTH2320
p553
sg4
(lp554
S'9780198776260'
p555
aS'9780745317984'
p556
aS'9781588267696'
p557
aS'9780812215809'
p558
aS'9781848135871'
p559
aS'9788186706671'
p560
aS'9780415105248'
p561
aS'9781847010841'
p562
aS'9780804744157'
p563
aS'9780385720274'
p564
aS'9781588262387'
p565
aS'9780415773980'
p566
aS'9781588265388'
p567
aS'9788186706527'
p568
aS'9780253210166'
p569
aS'9780253213419'
p570
aS'9780422796200'
p571
aS'9781847010773'
p572
asa(dp573
g2
VANTH2800
p574
sg4
(lp575
S'9781844670864'
p576
aS'9781405184533'
p577
aS'9780822354314'
p578
aS'9780521599269'
p579
aS'9780674510418'
p580
aS'9780521008976'
p581
aS'9780631226666'
p582
aS'9780691144504'
p583
aS'9780826317247'
p584
aS'9780881338508'
p585
asa(dp586
g2
VAPMA0160
p587
sg4
(lp588
S'9783642124297'
p589
asa(dp590
g2
VAPMA0330
p591
sg4
(lp592
S'9780470458310'
p593
asa(dp594
g2
VAPMA0340
p595
sg4
(lp596
S'9780470458310'
p597
asa(dp598
g2
VAPMA0350
p599
sg4
(lp600
S'9780470458310'
p601
asa(dp602
g2
VAPMA0360
p603
sg4
(lp604
S'9780470458310'
p605
asa(dp606
g2
VAPMA0650
p607
sg4
(lp608
S'9780470904107'
p609
aS'9781118172247'
p610
asa(dp611
g2
VAPMA1080
p612
sg4
(lp613
S'9780521629713'
p614
asa(dp615
g2
VAPMA1200
p616
sg4
(lp617
sa(dp618
g2
VAPMA1360
p619
sg4
(lp620
S'9780738204536'
p621
asa(dp622
g2
VAPMA1660
p623
sg4
(lp624
S'9780495110811'
p625
asa(dp626
g2
VAPMA1740
p627
sg4
(lp628
sa(dp629
g2
VAPMA1940T
p630
sg4
(lp631
S'9780821843338'
p632
asa(dp633
g2
VAPMA2200
p634
sg4
(lp635
S'9780821835777'
p636
asa(dp637
g2
VAPMA2240
p638
sg4
(lp639
sa(dp640
g2
VAPMA2560
p641
sg4
(lp642
S'9780486469003'
p643
asa(dp644
g2
VAPMA2580B
p645
sg4
(lp646
S'9783764389390'
p647
aS'9780817627232'
p648
aS'9783540649779'
p649
asa(dp650
g2
VAPMA2610
p651
sg4
(lp652
sa(dp653
g2
VAPMA2640
p654
sg4
(lp655
S'9783540254843'
p656
asa(dp657
g2
VAPMA2811O
p658
sg4
(lp659
sa(dp660
g2
VAPMA2821S
p661
sg4
(lp662
S'9780521734431'
p663
asa(dp664
g2
VAPMAAPMA 1740
p665
sg4
(lp666
sa(dp667
g2
VARAB0110
p668
sg4
(lp669
sa(dp670
g2
VARAB0200
p671
sg4
(lp672
S'9781589011045'
p673
aS'9781589015067'
p674
aS'9780879500030'
p675
asa(dp676
g2
VARAB0210
p677
sg4
(lp678
sa(dp679
g2
VARAB0400
p680
sg4
(lp681
S'9780879500030'
p682
aS'9781589010963'
p683
aS'9781589010970'
p684
asa(dp685
g2
VARAB0600
p686
sg4
(lp687
S'9781589011496'
p688
aS'9780879500030'
p689
asa(dp690
g2
VARAB0800
p691
sg4
(lp692
sa(dp693
g2
VARCH0100
p694
sg4
(lp695
sa(dp696
g2
VARCH0365
p697
sg4
(lp698
sa(dp699
g2
VARCH0420
p700
sg4
(lp701
S'9781405167345'
p702
aS'9780521627337'
p703
aS'9781444336917'
p704
asa(dp705
g2
VARCH1575
p706
sg4
(lp707
sa(dp708
g2
VARCH1620
p709
sg4
(lp710
sa(dp711
g2
VARCH1630
p712
sg4
(lp713
S'9780954349721'
p714
aS'9780415255899'
p715
aS'9781405113724'
p716
aS'9780801484759'
p717
aS'9780471743583'
p718
asa(dp719
g2
VARCH1764
p720
sg4
(lp721
sa(dp722
g2
VARCH1870
p723
sg4
(lp724
S'9780521310772'
p725
asa(dp726
g2
VARCH2147
p727
sg4
(lp728
sa(dp729
g2
VARCH2185
p730
sg4
(lp731
sa(dp732
g2
VARCH2230
p733
sg4
(lp734
sa(dp735
g2
VARCH2295
p736
sg4
(lp737
sa(dp738
g2
VAWAS1150
p739
sg4
(lp740
sa(dp741
g2
VAWAS1300
p742
sg4
(lp743
S'9780748617562'
p744
asa(dp745
g2
VAWAS1400
p746
sg4
(lp747
S'9783447067829'
p748
asa(dp749
g2
VAWAS1500
p750
sg4
(lp751
S'9781405126526'
p752
asa(dp753
g2
VAWAS2700
p754
sg4
(lp755
sa(dp756
g2
VBEO1940A
p757
sg4
(lp758
sa(dp759
g2
VBEO1940B
p760
sg4
(lp761
sa(dp762
g2
VBIOL0040
p763
sg4
(lp764
sa(dp765
g2
VBIOL0150A
p766
sg4
(lp767
sa(dp768
g2
VBIOL0150B
p769
sg4
(lp770
S'9780199601622'
p771
asa(dp772
g2
VBIOL0150C
p773
sg4
(lp774
sa(dp775
g2
VBIOL0150D
p776
sg4
(lp777
sa(dp778
g2
VBIOL0190H
p779
sg4
(lp780
S'9780801486104'
p781
asa(dp782
g2
VBIOL0190S
p783
sg4
(lp784
sa(dp785
g2
VBIOL0190T
p786
sg4
(lp787
sa(dp788
g2
VBIOL0200
p789
sg4
(lp790
S'9780321917577'
p791
aS'9780321917584'
p792
aS'9780321931788'
p793
aS'9780321743671'
p794
asa(dp795
g2
VBIOL0280
p796
sg4
(lp797
S'9781464109607'
p798
aS'9781429234146'
p799
asa(dp800
g2
VBIOL0320
p801
sg4
(lp802
S'9781405111478'
p803
aS'9780321556943'
p804
asa(dp805
g2
VBIOL0415
p806
sg4
(lp807
S'9780321649638'
p808
asa(dp809
g2
VBIOL0420
p810
sg4
(lp811
S'9780878933181'
p812
asa(dp813
g2
VBIOL0440
p814
sg4
(lp815
S'9781464117978'
p816
aS'9781429219617'
p817
asa(dp818
g2
VBIOL0495
p819
sg4
(lp820
sa(dp821
g2
VBIOL0500
p822
sg4
(lp823
S'9780815344551'
p824
asa(dp825
g2
VBIOL0510
p826
sg4
(lp827
S'9780321794383'
p828
aS'9780321649638'
p829
asa(dp830
g2
VBIOL0800
p831
sg4
(lp832
S'9780077350017'
p833
aS'9780073378305'
p834
asa(dp835
g2
VBIOL0920A
p836
sg4
(lp837
S'9780801883262'
p838
aS'9781250015761'
p839
asa(dp840
g2
VBIOL1100
p841
sg4
(lp842
sa(dp843
g2
VBIOL1120
p844
sg4
(lp845
sa(dp846
g2
VBIOL1150
p847
sg4
(lp848
sa(dp849
g2
VBIOL1200
p850
sg4
(lp851
sa(dp852
g2
VBIOL1315
p853
sg4
(lp854
sa(dp855
g2
VBIOL1330
p856
sg4
(lp857
sa(dp858
g2
VBIOL1450
p859
sg4
(lp860
sa(dp861
g2
VBIOL1540
p862
sg4
(lp863
sa(dp864
g2
VBIOL1550
p865
sg4
(lp866
sa(dp867
g2
VBIOL1600
p868
sg4
(lp869
sa(dp870
g2
VBIOL1820
p871
sg4
(lp872
sa(dp873
g2
VBIOL1870
p874
sg4
(lp875
sa(dp876
g2
VBIOL1880
p877
sg4
(lp878
S'9780321773364'
p879
aS'9780030223693'
p880
aS'BSYWE2NZIWMD'
p881
aS'BSNJA5MZA2ZG'
p882
aS'9780307277459'
p883
aS'9780123750600'
p884
asa(dp885
g2
VBIOL2000B
p886
sg4
(lp887
sa(dp888
g2
VBIOL2000D
p889
sg4
(lp890
sa(dp891
g2
VBIOL2010
p892
sg4
(lp893
S'9780878933914'
p894
asa(dp895
g2
VBIOL2135
p896
sg4
(lp897
S'9780071603935'
p898
asa(dp899
g2
VBIOL2140
p900
sg4
(lp901
sa(dp902
g2
VBIOL2145
p903
sg4
(lp904
sa(dp905
g2
VBIOL2156
p906
sg4
(lp907
sa(dp908
g2
VBIOL2160
p909
sg4
(lp910
sa(dp911
g2
VBIOL2167
p912
sg4
(lp913
sa(dp914
g2
VBIOL2200C
p915
sg4
(lp916
sa(dp917
g2
VBIOL2240
p918
sg4
(lp919
sa(dp920
g2
VBIOL2290F
p921
sg4
(lp922
sa(dp923
g2
VBIOL2350
p924
sg4
(lp925
sa(dp926
g2
VBIOL2440
p927
sg4
(lp928
sa(dp929
g2
VBIOL2540
p930
sg4
(lp931
sa(dp932
g2
VBIOL2640A
p933
sg4
(lp934
sa(dp935
g2
VBIOL2940A
p936
sg4
(lp937
sa(dp938
g2
VBIOL3001
p939
sg4
(lp940
sa(dp941
g2
VBIOL3020
p942
sg4
(lp943
sa(dp944
g2
VBIOL3030
p945
sg4
(lp946
sa(dp947
g2
VBIOL3040
p948
sg4
(lp949
sa(dp950
g2
VBIOL3045
p951
sg4
(lp952
sa(dp953
g2
VBIOL3050
p954
sg4
(lp955
sa(dp956
g2
VBIOL3060
p957
sg4
(lp958
sa(dp959
g2
VBIOL3070
p960
sg4
(lp961
sa(dp962
g2
VBIOL3080
p963
sg4
(lp964
sa(dp965
g2
VBIOL3100
p966
sg4
(lp967
sa(dp968
g2
VBIOL3110
p969
sg4
(lp970
sa(dp971
g2
VBIOL3120
p972
sg4
(lp973
sa(dp974
g2
VBIOL3150
p975
sg4
(lp976
sa(dp977
g2
VBIOL3160
p978
sg4
(lp979
sa(dp980
g2
VBIOL3165
p981
sg4
(lp982
sa(dp983
g2
VBIOL3170
p984
sg4
(lp985
sa(dp986
g2
VBIOL3180
p987
sg4
(lp988
sa(dp989
g2
VBIOL3190
p990
sg4
(lp991
sa(dp992
g2
VBIOL3200
p993
sg4
(lp994
sa(dp995
g2
VBIOL3230
p996
sg4
(lp997
sa(dp998
g2
VBIOL3240
p999
sg4
(lp1000
sa(dp1001
g2
VBIOL3265
p1002
sg4
(lp1003
sa(dp1004
g2
VBIOL3275
p1005
sg4
(lp1006
sa(dp1007
g2
VBIOL3280
p1008
sg4
(lp1009
sa(dp1010
g2
VBIOL3290
p1011
sg4
(lp1012
sa(dp1013
g2
VBIOL3295
p1014
sg4
(lp1015
sa(dp1016
g2
VBIOL3300
p1017
sg4
(lp1018
sa(dp1019
g2
VBIOL3310
p1020
sg4
(lp1021
sa(dp1022
g2
VBIOL3330
p1023
sg4
(lp1024
sa(dp1025
g2
VBIOL3331
p1026
sg4
(lp1027
sa(dp1028
g2
VBIOL3340
p1029
sg4
(lp1030
sa(dp1031
g2
VBIOL3350
p1032
sg4
(lp1033
sa(dp1034
g2
VBIOL3360
p1035
sg4
(lp1036
sa(dp1037
g2
VBIOL3365
p1038
sg4
(lp1039
sa(dp1040
g2
VBIOL3370
p1041
sg4
(lp1042
sa(dp1043
g2
VBIOL3390
p1044
sg4
(lp1045
sa(dp1046
g2
VBIOL3400
p1047
sg4
(lp1048
sa(dp1049
g2
VBIOL3405
p1050
sg4
(lp1051
sa(dp1052
g2
VBIOL3490
p1053
sg4
(lp1054
sa(dp1055
g2
VBIOL3500
p1056
sg4
(lp1057
sa(dp1058
g2
VBIOL3650
p1059
sg4
(lp1060
sa(dp1061
g2
VBIOL3651
p1062
sg4
(lp1063
sa(dp1064
g2
VBIOL3652
p1065
sg4
(lp1066
sa(dp1067
g2
VBIOL3653
p1068
sg4
(lp1069
sa(dp1070
g2
VBIOL3654
p1071
sg4
(lp1072
sa(dp1073
g2
VBIOL3670
p1074
sg4
(lp1075
sa(dp1076
g2
VBIOL3671
p1077
sg4
(lp1078
sa(dp1079
g2
VBIOL3672
p1080
sg4
(lp1081
sa(dp1082
g2
VBIOL3673
p1083
sg4
(lp1084
sa(dp1085
g2
VBIOL3675
p1086
sg4
(lp1087
sa(dp1088
g2
VBIOL3676
p1089
sg4
(lp1090
sa(dp1091
g2
VBIOL3750
p1092
sg4
(lp1093
sa(dp1094
g2
VBIOL3770
p1095
sg4
(lp1096
sa(dp1097
g2
VBIOL3790
p1098
sg4
(lp1099
sa(dp1100
g2
VBIOL3795
p1101
sg4
(lp1102
sa(dp1103
g2
VBIOL3800
p1104
sg4
(lp1105
sa(dp1106
g2
VBIOL3810
p1107
sg4
(lp1108
sa(dp1109
g2
VBIOL3820
p1110
sg4
(lp1111
sa(dp1112
g2
VBIOL3900
p1113
sg4
(lp1114
sa(dp1115
g2
VBIOL3910
p1116
sg4
(lp1117
sa(dp1118
g2
VBIOL3930
p1119
sg4
(lp1120
sa(dp1121
g2
VBIOL3940
p1122
sg4
(lp1123
sa(dp1124
g2
VBIOL3950
p1125
sg4
(lp1126
sa(dp1127
g2
VBIOL3960
p1128
sg4
(lp1129
sa(dp1130
g2
VBIOL3965
p1131
sg4
(lp1132
sa(dp1133
g2
VBIOL4010
p1134
sg4
(lp1135
sa(dp1136
g2
VBIOL4011
p1137
sg4
(lp1138
sa(dp1139
g2
VBIOL4012
p1140
sg4
(lp1141
sa(dp1142
g2
VBIOL4020
p1143
sg4
(lp1144
sa(dp1145
g2
VBIOL4030
p1146
sg4
(lp1147
sa(dp1148
g2
VBIOL4060
p1149
sg4
(lp1150
sa(dp1151
g2
VBIOL4070
p1152
sg4
(lp1153
sa(dp1154
g2
VBIOL4080
p1155
sg4
(lp1156
sa(dp1157
g2
VBIOL4090
p1158
sg4
(lp1159
sa(dp1160
g2
VBIOL4100
p1161
sg4
(lp1162
sa(dp1163
g2
VBIOL4120
p1164
sg4
(lp1165
sa(dp1166
g2
VBIOL4140
p1167
sg4
(lp1168
sa(dp1169
g2
VBIOL4160
p1170
sg4
(lp1171
sa(dp1172
g2
VBIOL4190
p1173
sg4
(lp1174
sa(dp1175
g2
VBIOL4210
p1176
sg4
(lp1177
sa(dp1178
g2
VBIOL4250
p1179
sg4
(lp1180
sa(dp1181
g2
VBIOL4300
p1182
sg4
(lp1183
sa(dp1184
g2
VBIOL4500
p1185
sg4
(lp1186
sa(dp1187
g2
VBIOL4520
p1188
sg4
(lp1189
sa(dp1190
g2
VBIOL4540
p1191
sg4
(lp1192
sa(dp1193
g2
VBIOL4550
p1194
sg4
(lp1195
sa(dp1196
g2
VBIOL4560
p1197
sg4
(lp1198
sa(dp1199
g2
VBIOL4570
p1200
sg4
(lp1201
sa(dp1202
g2
VBIOL4580
p1203
sg4
(lp1204
sa(dp1205
g2
VBIOL4600
p1206
sg4
(lp1207
sa(dp1208
g2
VBIOL4610
p1209
sg4
(lp1210
sa(dp1211
g2
VBIOL4630
p1212
sg4
(lp1213
sa(dp1214
g2
VBIOL4640
p1215
sg4
(lp1216
sa(dp1217
g2
VBIOL4900
p1218
sg4
(lp1219
sa(dp1220
g2
VBIOL4910
p1221
sg4
(lp1222
sa(dp1223
g2
VBIOL4930
p1224
sg4
(lp1225
sa(dp1226
g2
VBIOL4940
p1227
sg4
(lp1228
sa(dp1229
g2
VBIOL4950
p1230
sg4
(lp1231
sa(dp1232
g2
VBIOL4975
p1233
sg4
(lp1234
sa(dp1235
g2
VBIOL4980
p1236
sg4
(lp1237
sa(dp1238
g2
VBIOL4990
p1239
sg4
(lp1240
sa(dp1241
g2
VBIOL5100
p1242
sg4
(lp1243
sa(dp1244
g2
VBIOL5110
p1245
sg4
(lp1246
sa(dp1247
g2
VBIOL5130
p1248
sg4
(lp1249
sa(dp1250
g2
VBIOL5140
p1251
sg4
(lp1252
sa(dp1253
g2
VBIOL5150
p1254
sg4
(lp1255
sa(dp1256
g2
VBIOL5200
p1257
sg4
(lp1258
sa(dp1259
g2
VBIOL5210
p1260
sg4
(lp1261
sa(dp1262
g2
VBIOL5215
p1263
sg4
(lp1264
sa(dp1265
g2
VBIOL5220
p1266
sg4
(lp1267
sa(dp1268
g2
VBIOL5400
p1269
sg4
(lp1270
sa(dp1271
g2
VBIOL5490
p1272
sg4
(lp1273
sa(dp1274
g2
VBIOL5620
p1275
sg4
(lp1276
sa(dp1277
g2
VBIOL5625
p1278
sg4
(lp1279
sa(dp1280
g2
VBIOL5630
p1281
sg4
(lp1282
sa(dp1283
g2
VBIOL5650
p1284
sg4
(lp1285
sa(dp1286
g2
VBIOL5800
p1287
sg4
(lp1288
sa(dp1289
g2
VBIOL5810
p1290
sg4
(lp1291
sa(dp1292
g2
VBIOL5820
p1293
sg4
(lp1294
sa(dp1295
g2
VBIOL5830
p1296
sg4
(lp1297
sa(dp1298
g2
VBIOL5850
p1299
sg4
(lp1300
sa(dp1301
g2
VBIOL5860
p1302
sg4
(lp1303
sa(dp1304
g2
VBIOL6010
p1305
sg4
(lp1306
sa(dp1307
g2
VBIOL6110
p1308
sg4
(lp1309
sa(dp1310
g2
VBIOL6120
p1311
sg4
(lp1312
sa(dp1313
g2
VBIOL6140
p1314
sg4
(lp1315
sa(dp1316
g2
VBIOL6260
p1317
sg4
(lp1318
sa(dp1319
g2
VBIOL6270
p1320
sg4
(lp1321
sa(dp1322
g2
VBIOL6275
p1323
sg4
(lp1324
sa(dp1325
g2
VBIOL6280
p1326
sg4
(lp1327
sa(dp1328
g2
VBIOL6290
p1329
sg4
(lp1330
sa(dp1331
g2
VBIOL6320
p1332
sg4
(lp1333
sa(dp1334
g2
VBIOL6330
p1335
sg4
(lp1336
sa(dp1337
g2
VBIOL6360
p1338
sg4
(lp1339
sa(dp1340
g2
VBIOL6380
p1341
sg4
(lp1342
sa(dp1343
g2
VBIOL6390
p1344
sg4
(lp1345
sa(dp1346
g2
VBIOL6400
p1347
sg4
(lp1348
sa(dp1349
g2
VBIOL7000
p1350
sg4
(lp1351
sa(dp1352
g2
VBIOL7010
p1353
sg4
(lp1354
sa(dp1355
g2
VBIOL7020
p1356
sg4
(lp1357
sa(dp1358
g2
VBIOL7100
p1359
sg4
(lp1360
sa(dp1361
g2
VBIOL7110
p1362
sg4
(lp1363
sa(dp1364
g2
VBIOL7120
p1365
sg4
(lp1366
sa(dp1367
g2
VBIOL7140
p1368
sg4
(lp1369
sa(dp1370
g2
VBIOL7160
p1371
sg4
(lp1372
sa(dp1373
g2
VBIOL7500
p1374
sg4
(lp1375
sa(dp1376
g2
VBIOL7600
p1377
sg4
(lp1378
sa(dp1379
g2
VCATL0100
p1380
sg4
(lp1381
sa(dp1382
g2
VCATL0200
p1383
sg4
(lp1384
sa(dp1385
g2
VCATL0300
p1386
sg4
(lp1387
sa(dp1388
g2
VCHEM0080
p1389
sg4
(lp1390
S'9780684800011'
p1391
asa(dp1392
g2
VCHEM0080F
p1393
sg4
(lp1394
sa(dp1395
g2
VCHEM0330
p1396
sg4
(lp1397
S'9781930882508'
p1398
aS'9780983385950'
p1399
aS'9781930882744'
p1400
aS'9781133109235'
p1401
aS'9781111580650'
p1402
asa(dp1403
g2
VCHEM033T
p1404
sg4
(lp1405
S'9781602635043'
p1406
asa(dp1407
g2
VCHEM0350
p1408
sg4
(lp1409
S'9781133952848'
p1410
aS'9780738041353'
p1411
aS'9781285052618'
p1412
aS'9781930882744'
p1413
aS'9781930882232'
p1414
aS'9781930882508'
p1415
aS'9780964883741'
p1416
asa(dp1417
g2
VCHEM0400
p1418
sg4
(lp1419
S'9780935702736'
p1420
asa(dp1421
g2
VCHEM0500
p1422
sg4
(lp1423
S'9780136128663'
p1424
aS'9780321811059'
p1425
asa(dp1426
g2
VCHEM1150
p1427
sg4
(lp1428
S'9780935702996'
p1429
asa(dp1430
g2
VCHEM1160
p1431
sg4
(lp1432
S'9780073657981'
p1433
asa(dp1434
g2
VCHEM1240
p1435
sg4
(lp1436
sa(dp1437
g2
VCHEM1450
p1438
sg4
(lp1439
S'9780199270293'
p1440
aS'9780199663347'
p1441
asa(dp1442
g2
VCHEM1560G
p1443
sg4
(lp1444
S'9780471730965'
p1445
asa(dp1446
g2
VCHEM1620B
p1447
sg4
(lp1448
sa(dp1449
g2
VCHEM1660
p1450
sg4
(lp1451
S'9780495012016'
p1452
asa(dp1453
g2
VCHEM2020
p1454
sg4
(lp1455
S'9781891389153'
p1456
asa(dp1457
g2
VCHEM2320
p1458
sg4
(lp1459
S'9780471987567'
p1460
asa(dp1461
g2
VCHEM2430
p1462
sg4
(lp1463
S'9789814313704'
p1464
asa(dp1465
g2
VCHEM2780
p1466
sg4
(lp1467
S'9780199541423'
p1468
asa(dp1469
g2
VCHEM2880
p1470
sg4
(lp1471
sa(dp1472
g2
VCHIN0200
p1473
sg4
(lp1474
S'9780198005940'
p1475
asa(dp1476
g2
VCHIN0250
p1477
sg4
(lp1478
S'9780300115499'
p1479
aS'9780300125160'
p1480
asa(dp1481
g2
VCHIN0400
p1482
sg4
(lp1483
sa(dp1484
g2
VCHIN0600
p1485
sg4
(lp1486
sa(dp1487
g2
VCHIN0800
p1488
sg4
(lp1489
sa(dp1490
g2
VCHIN0910B
p1491
sg4
(lp1492
S'BSZMRHNZK4ZM'
p1493
aS'9780774805414'
p1494
asa(dp1495
g2
VCLAS0400
p1496
sg4
(lp1497
S'9780140448146'
p1498
aS'9780192834188'
p1499
aS'9780801850714'
p1500
aS'9780812216523'
p1501
aS'9780199536146'
p1502
aS'9780199540563'
p1503
aS'9780801850738'
p1504
aS'9780199556038'
p1505
aS'9780140449518'
p1506
aS'9780140449693'
p1507
asa(dp1508
g2
VCLAS0850
p1509
sg4
(lp1510
S'9780486217598'
p1511
aS'9780520051928'
p1512
aS'9780140449907'
p1513
asa(dp1514
g2
VCLAS1120Q
p1515
sg4
(lp1516
S'9780415050364'
p1517
asa(dp1518
g2
VCLAS1120V
p1519
sg4
(lp1520
S'9780521521574'
p1521
aS'9780140445350'
p1522
aS'9780140444063'
p1523
aS'9780140231991'
p1524
asa(dp1525
g2
VCLAS1140
p1526
sg4
(lp1527
sa(dp1528
g2
VCLAS1220
p1529
sg4
(lp1530
S'9780415473309'
p1531
aS'9781405192866'
p1532
asa(dp1533
g2
VCLAS1420
p1534
sg4
(lp1535
S'9780521423755'
p1536
aS'9780801855078'
p1537
aS'9780415331586'
p1538
aS'9780415489072'
p1539
asa(dp1540
g2
VCLAS1770
p1541
sg4
(lp1542
S'9780300065046'
p1543
aS'9780140443431'
p1544
aS'9780226089720'
p1545
aS'9780801493652'
p1546
aS'9780521687119'
p1547
aS'9780199537815'
p1548
aS'9781555402679'
p1549
aS'9780872203600'
p1550
aS'9780415618090'
p1551
asa(dp1552
g2
VCLAS1930A
p1553
sg4
(lp1554
sa(dp1555
g2
VCLAS2110H
p1556
sg4
(lp1557
sa(dp1558
g2
VCLAS2110I
p1559
sg4
(lp1560
S'9780415248778'
p1561
asa(dp1562
g2
VCLPS0010
p1563
sg4
(lp1564
S'9780393260205'
p1565
aS'9780393260212'
p1566
asa(dp1567
g2
VCLPS0030
p1568
sg4
(lp1569
S'9780631197119'
p1570
aS'9780814251799'
p1571
asa(dp1572
g2
VCLPS0040
p1573
sg4
(lp1574
sa(dp1575
g2
VCLPS0050I
p1576
sg4
(lp1577
sa(dp1578
g2
VCLPS0100
p1579
sg4
(lp1580
S'9780495601999'
p1581
asa(dp1582
g2
VCLPS0110
p1583
sg4
(lp1584
sa(dp1585
g2
VCLPS0200
p1586
sg4
(lp1587
S'9780393930481'
p1588
asa(dp1589
g2
VCLPS0400
p1590
sg4
(lp1591
S'9780262562133'
p1592
asa(dp1593
g2
VCLPS0500
p1594
sg4
(lp1595
S'9780878935727'
p1596
asa(dp1597
g2
VCLPS0510
p1598
sg4
(lp1599
S'9780815625087'
p1600
asa(dp1601
g2
VCLPS0700
p1602
sg4
(lp1603
sa(dp1604
g2
VCLPS0701
p1605
sg4
(lp1606
S'9780393934366'
p1607
aS'9780195430202'
p1608
asa(dp1609
g2
VCLPS0900
p1610
sg4
(lp1611
S'9781285300511'
p1612
aS'9781285076911'
p1613
asa(dp1614
g2
VCLPS1180A
p1615
sg4
(lp1616
sa(dp1617
g2
VCLPS1193
p1618
sg4
(lp1619
sa(dp1620
g2
VCLPS1211
p1621
sg4
(lp1622
sa(dp1623
g2
VCLPS1291
p1624
sg4
(lp1625
sa(dp1626
g2
VCLPS1330
p1627
sg4
(lp1628
S'9781405118538'
p1629
aS'9781444112054'
p1630
asa(dp1631
g2
VCLPS1360
p1632
sg4
(lp1633
S'9780521686891'
p1634
aS'9780521709187'
p1635
aS'9780387790534'
p1636
asa(dp1637
g2
VCLPS1370
p1638
sg4
(lp1639
S'9781405175838'
p1640
asa(dp1641
g2
VCLPS1383C
p1642
sg4
(lp1643
sa(dp1644
g2
VCLPS1400
p1645
sg4
(lp1646
sa(dp1647
g2
VCLPS1491
p1648
sg4
(lp1649
sa(dp1650
g2
VCLPS1520
p1651
sg4
(lp1652
sa(dp1653
g2
VCLPS1530
p1654
sg4
(lp1655
sa(dp1656
g2
VCLPS1560
p1657
sg4
(lp1658
sa(dp1659
g2
VCLPS1570
p1660
sg4
(lp1661
sa(dp1662
g2
VCLPS1580C
p1663
sg4
(lp1664
S'9780123814647'
p1665
asa(dp1666
g2
VCLPS1590
p1667
sg4
(lp1668
sa(dp1669
g2
VCLPS1610
p1670
sg4
(lp1671
sa(dp1672
g2
VCLPS1621
p1673
sg4
(lp1674
sa(dp1675
g2
VCLPS1680B
p1676
sg4
(lp1677
sa(dp1678
g2
VCLPS1720
p1679
sg4
(lp1680
sa(dp1681
g2
VCLPS1791
p1682
sg4
(lp1683
S'9780199897612'
p1684
asa(dp1685
g2
VCLPS1820
p1686
sg4
(lp1687
sa(dp1688
g2
VCLPS1900
p1689
sg4
(lp1690
sa(dp1691
g2
VCLPS2100
p1692
sg4
(lp1693
sa(dp1694
g2
VCLPS2908
p1695
sg4
(lp1696
sa(dp1697
g2
VCOLT0510K
p1698
sg4
(lp1699
S'9780393928082'
p1700
aS'9781860649837'
p1701
aS'9780312427177'
p1702
aS'9780393332469'
p1703
aS'9780573663888'
p1704
asa(dp1705
g2
VCOLT0610P
p1706
sg4
(lp1707
S'9780141439563'
p1708
aS'9780451529992'
p1709
aS'9780393927931'
p1710
aS'9780156907392'
p1711
aS'9780141441580'
p1712
aS'9780618329960'
p1713
aS'9780679748403'
p1714
asa(dp1715
g2
VCOLT0811N
p1716
sg4
(lp1717
S'9780156030359'
p1718
aS'9780300097344'
p1719
aS'9780199537150'
p1720
aS'9780375719011'
p1721
aS'9780199536221'
p1722
aS'9781566567718'
p1723
asa(dp1724
g2
VCOLT0811R
p1725
sg4
(lp1726
S'9781566564151'
p1727
aS'9780815607267'
p1728
aS'9780894103230'
p1729
aS'9780941533812'
p1730
aS'9780679734529'
p1731
aS'9780863565496'
p1732
aS'9780300060997'
p1733
aS'9780811217958'
p1734
aS'9781590173428'
p1735
asa(dp1736
g2
VCOLT1410L
p1737
sg4
(lp1738
S'9781904271017'
p1739
aS'9780140433395'
p1740
aS'9780226311517'
p1741
aS'9781903436219'
p1742
asa(dp1743
g2
VCOLT1410S
p1744
sg4
(lp1745
S'9780199536108'
p1746
aS'9780226311449'
p1747
aS'9780226307923'
p1748
aS'9780671722586'
p1749
aS'9780226307787'
p1750
aS'9780451526892'
p1751
aS'9780226307947'
p1752
aS'9780679763963'
p1753
aS'9780743482851'
p1754
aS'9780141392080'
p1755
aS'9780226307862'
p1756
aS'9780192807069'
p1757
asa(dp1758
g2
VCOLT1420B
p1759
sg4
(lp1760
S'9781568360294'
p1761
aS'9780394735306'
p1762
aS'9780140443721'
p1763
aS'9780140443714'
p1764
aS'9780140443264'
p1765
aS'9784805310847'
p1766
aS'9780140442939'
p1767
aS'9780231114073'
p1768
aS'9780140443707'
p1769
asa(dp1770
g2
VCOLT1421W
p1771
sg4
(lp1772
S'9780684852560'
p1773
aS'9780374529260'
p1774
aS'9780199539178'
p1775
aS'9780375714795'
p1776
aS'9780140443288'
p1777
aS'9789600411836'
p1778
asa(dp1779
g2
VCOLT1430D
p1780
sg4
(lp1781
S'9780253206077'
p1782
aS'9781590172575'
p1783
aS'9780674749214'
p1784
aS'9780804732314'
p1785
aS'9780140443264'
p1786
aS'9780140442939'
p1787
aS'9780140443707'
p1788
asa(dp1789
g2
VCOLT1430Y
p1790
sg4
(lp1791
S'9780253213174'
p1792
aS'9780679722014'
p1793
aS'9780375759024'
p1794
aS'9780520253865'
p1795
aS'9780140423754'
p1796
aS'9780226039268'
p1797
asa(dp1798
g2
VCOLT1430Z
p1799
sg4
(lp1800
S'9780872200760'
p1801
aS'9780872202207'
p1802
aS'9781408017975'
p1803
asa(dp1804
g2
VCOLT1440G
p1805
sg4
(lp1806
S'9781629100654'
p1807
aS'9780374533731'
p1808
aS'9781573927536'
p1809
aS'9780486421308'
p1810
aS'9780863564079'
p1811
aS'9780195116229'
p1812
asa(dp1813
g2
VCOLT1810G
p1814
sg4
(lp1815
S'9780140061406'
p1816
aS'9780679725756'
p1817
aS'9780553273915'
p1818
aS'9780143119258'
p1819
aS'9780140280494'
p1820
aS'9780812978186'
p1821
aS'9781400034703'
p1822
asa(dp1823
g2
VCOLT1811L
p1824
sg4
(lp1825
S'9780199536429'
p1826
aS'9781853264733'
p1827
aS'9780140434903'
p1828
aS'9780393927719'
p1829
aS'9780156453806'
p1830
aS'9780802130860'
p1831
aS'9780810160354'
p1832
aS'9780374527075'
p1833
aS'9780195060836'
p1834
aS'9780910395823'
p1835
aS'9781848856554'
p1836
aS'9780140436716'
p1837
asa(dp1838
g2
VCOLT1811U
p1839
sg4
(lp1840
S'9780486443874'
p1841
aS'9780940322745'
p1842
aS'9780804727815'
p1843
aS'9780811214513'
p1844
aS'9780714833651'
p1845
aS'9780140441734'
p1846
aS'9780472061457'
p1847
aS'9780811208239'
p1848
aS'9780819568007'
p1849
aS'9780375725845'
p1850
aS'9780394703695'
p1851
asa(dp1852
g2
VCOLT1812H
p1853
sg4
(lp1854
S'9780393960570'
p1855
aS'9780375714832'
p1856
aS'9780435902483'
p1857
aS'9780385490818'
p1858
aS'9781853260728'
p1859
aS'9781884511233'
p1860
aS'9780451529428'
p1861
aS'9780811219907'
p1862
aS'9781479286126'
p1863
aS'9780394722184'
p1864
asa(dp1865
g2
VCOLT1812V
p1866
sg4
(lp1867
S'9781587296062'
p1868
aS'9781573440295'
p1869
asa(dp1870
g2
VCOLT1813M
p1871
sg4
(lp1872
S'9781564783936'
p1873
aS'9780810115132'
p1874
aS'9780156453806'
p1875
aS'9781567921571'
p1876
asa(dp1877
g2
VCOLT1813N
p1878
sg4
(lp1879
S'9780674821217'
p1880
aS'9780791432822'
p1881
aS'9781551111735'
p1882
aS'9780393963335'
p1883
aS'9780807070734'
p1884
asa(dp1885
g2
VCOLT1813O
p1886
sg4
(lp1887
sa(dp1888
g2
VCOLT1813P
p1889
sg4
(lp1890
S'9780874512366'
p1891
aS'9780140447804'
p1892
aS'9780140424218'
p1893
aS'9780300071214'
p1894
asa(dp1895
g2
VCOLT1813Q
p1896
sg4
(lp1897
S'9781400033416'
p1898
aS'9780805208863'
p1899
aS'9780684826806'
p1900
aS'9780801493614'
p1901
aS'9780679720225'
p1902
aS'9780812968231'
p1903
aS'9780679721864'
p1904
aS'9780143039884'
p1905
aS'9780140444254'
p1906
aS'9780140449129'
p1907
aS'9780141441344'
p1908
aS'9780140442014'
p1909
aS'9780415900577'
p1910
aS'9780140390537'
p1911
asa(dp1912
g2
VCOLT2540G
p1913
sg4
(lp1914
S'9781781680223'
p1915
aS'9780156074063'
p1916
aS'9781590170410'
p1917
asa(dp1918
g2
VCOLT2821G
p1919
sg4
(lp1920
sa(dp1921
g2
VCROL0100
p1922
sg4
(lp1923
S'9781584322948'
p1924
aS'9781584324027'
p1925
asa(dp1926
g2
VCROL0200
p1927
sg4
(lp1928
sa(dp1929
g2
VCROL0300
p1930
sg4
(lp1931
S'9789993591047'
p1932
asa(dp1933
g2
VCROL0400
p1934
sg4
(lp1935
S'9789993591054'
p1936
asa(dp1937
g2
VCSCI0040
p1938
sg4
(lp1939
S'9780898716917'
p1940
asa(dp1941
g2
VCSCI0080
p1942
sg4
(lp1943
S'9780691158198'
p1944
asa(dp1945
g2
VCSCI0081
p1946
sg4
(lp1947
sa(dp1948
g2
VCSCI0082
p1949
sg4
(lp1950
sa(dp1951
g2
VCSCI0160
p1952
sg4
(lp1953
S'9780073523408'
p1954
asa(dp1955
g2
VCSCI0180
p1956
sg4
(lp1957
sa(dp1958
g2
VCSCI0220
p1959
sg4
(lp1960
sa(dp1961
g2
VCSCI0320
p1962
sg4
(lp1963
sa(dp1964
g2
VCSCI0931
p1965
sg4
(lp1966
sa(dp1967
g2
VCSCI1280
p1968
sg4
(lp1969
sa(dp1970
g2
VCSCI1320
p1971
sg4
(lp1972
S'9781105578786'
p1973
aS'9780262511919'
p1974
aS'9780321965516'
p1975
asa(dp1976
g2
VCSCI1410
p1977
sg4
(lp1978
S'9780136042594'
p1979
asa(dp1980
g2
VCSCI1460
p1981
sg4
(lp1982
sa(dp1983
g2
VCSCI1480
p1984
sg4
(lp1985
sa(dp1986
g2
VCSCI1510
p1987
sg4
(lp1988
sa(dp1989
g2
VCSCI1550
p1990
sg4
(lp1991
S'9780521835404'
p1992
asa(dp1993
g2
VCSCI1660
p1994
sg4
(lp1995
S'9780321512949'
p1996
asa(dp1997
g2
VCSCI1670
p1998
sg4
(lp1999
S'9780471687238'
p2000
asa(dp2001
g2
VCSCI1690
p2002
sg4
(lp2003
sa(dp2004
g2
VCSCI1800
p2005
sg4
(lp2006
S'9780321512949'
p2007
asa(dp2008
g2
VCSCI1820
p2009
sg4
(lp2010
sa(dp2011
g2
VCSCI1950H
p2012
sg4
(lp2013
sa(dp2014
g2
VCSCI1950U
p2015
sg4
(lp2016
sa(dp2017
g2
VCSCI1950Y
p2018
sg4
(lp2019
S'9780262017152'
p2020
asa(dp2021
g2
VCSCI1951A
p2022
sg4
(lp2023
sa(dp2024
g2
VCSCI1951B
p2025
sg4
(lp2026
S'9789993253242'
p2027
aS'9780262518574'
p2028
aS'9780300181357'
p2029
asa(dp2030
g2
VCSCI2240
p2031
sg4
(lp2032
sa(dp2033
g2
VCSCI2500B
p2034
sg4
(lp2035
sa(dp2036
g2
VCSCI2750
p2037
sg4
(lp2038
sa(dp2039
g2
VCSCI2950U
p2040
sg4
(lp2041
sa(dp2042
g2
VCSCI2951E
p2043
sg4
(lp2044
sa(dp2045
g2
VCSCI2951L
p2046
sg4
(lp2047
sa(dp2048
g2
VCSCI2951M
p2049
sg4
(lp2050
sa(dp2051
g2
VCZCH0200--CANC
p2052
sg4
(lp2053
sa(dp2054
g2
VCZCH0610B
p2055
sg4
(lp2056
S'9780893570989'
p2057
asa(dp2058
g2
VDEVL1500
p2059
sg4
(lp2060
S'9780226065663'
p2061
aS'9781412999809'
p2062
aS'9781412981194'
p2063
aS'9781412902854'
p2064
asa(dp2065
g2
VDEVL1801
p2066
sg4
(lp2067
S'9781412953665'
p2068
aS'9780199604432'
p2069
aS'9781856497947'
p2070
aS'9781853392412'
p2071
aS'9781610390934'
p2072
aS'9780855983628'
p2073
aS'9780742504103'
p2074
aS'9780300049381'
p2075
aS'9780691150451'
p2076
aS'9781842774618'
p2077
aS'9781853393860'
p2078
asa(dp2079
g2
VDEVL2010
p2080
sg4
(lp2081
sa(dp2082
g2
VEAST1070
p2083
sg4
(lp2084
S'BSZDGWMDBKOT'
p2085
asa(dp2086
g2
VEAST1420
p2087
sg4
(lp2088
sa(dp2089
g2
VEAST1500
p2090
sg4
(lp2091
S'9780199837083'
p2092
aS'9780393934519'
p2093
asa(dp2094
g2
VEAST1950G
p2095
sg4
(lp2096
sa(dp2097
g2
VEAST1950K
p2098
sg4
(lp2099
sa(dp2100
g2
VEAST1950Y
p2101
sg4
(lp2102
S'9780143114451'
p2103
aS'9781603842006'
p2104
aS'9789629963095'
p2105
aS'9780684829579'
p2106
aS'9780226065663'
p2107
aS'9780520201842'
p2108
aS'9780472089239'
p2109
aS'9781405840583'
p2110
aS'9780253215277'
p2111
aS'9780674066854'
p2112
aS'9780887273896'
p2113
aS'9780226816388'
p2114
asa(dp2115
g2
VECON0110
p2116
sg4
(lp2117
S'9780538453059'
p2118
aS'9781111546960'
p2119
asa(dp2120
g2
VECON0510
p2121
sg4
(lp2122
S'9780138013882'
p2123
asa(dp2124
g2
VECON0710
p2125
sg4
(lp2126
S'9781285069647'
p2127
asa(dp2128
g2
VECON1110
p2129
sg4
(lp2130
S'9781451651737'
p2131
aS'9781107623767'
p2132
asa(dp2133
g2
VECON1130
p2134
sg4
(lp2135
S'9781107623767'
p2136
asa(dp2137
g2
VECON1210
p2138
sg4
(lp2139
S'9780321436337'
p2140
aS'9781429253673'
p2141
asa(dp2142
g2
VECON1225
p2143
sg4
(lp2144
sa(dp2145
g2
VECON1275
p2146
sg4
(lp2147
S'9780822309734'
p2148
aS'9781405134590'
p2149
aS'9780226320557'
p2150
aS'9780393090406'
p2151
aS'9780691116297'
p2152
aS'9780684862149'
p2153
aS'9780393955309'
p2154
asa(dp2155
g2
VECON1305
p2156
sg4
(lp2157
sa(dp2158
g2
VECON1310
p2159
sg4
(lp2160
S'9780073523200'
p2161
asa(dp2162
g2
VECON1450
p2163
sg4
(lp2164
sa(dp2165
g2
VECON1460
p2166
sg4
(lp2167
sa(dp2168
g2
VECON1480
p2169
sg4
(lp2170
S'9780078021688'
p2171
asa(dp2172
g2
VECON1486
p2173
sg4
(lp2174
sa(dp2175
g2
VECON1510
p2176
sg4
(lp2177
S'9781610390934'
p2178
asa(dp2179
g2
VECON1550
p2180
sg4
(lp2181
S'9781405183864'
p2182
asa(dp2183
g2
VECON1620
p2184
sg4
(lp2185
S'9781285559636'
p2186
asa(dp2187
g2
VECON1629
p2188
sg4
(lp2189
S'9780136123682'
p2190
aS'9780138009007'
p2191
asa(dp2192
g2
VECON1630
p2193
sg4
(lp2194
S'9780138009007'
p2195
asa(dp2196
g2
VECON1640
p2197
sg4
(lp2198
S'9780470505397'
p2199
asa(dp2200
g2
VECON1710
p2201
sg4
(lp2202
S'9780073530703'
p2203
aS'9780077476380'
p2204
asa(dp2205
g2
VECON1720
p2206
sg4
(lp2207
S'9780132148238'
p2208
asa(dp2209
g2
VECON1730
p2210
sg4
(lp2211
S'9781250040176'
p2212
aS'9781591844600'
p2213
aS'9781591846291'
p2214
aS'9781422157640'
p2215
asa(dp2216
g2
VECON1765
p2217
sg4
(lp2218
S'9780691145921'
p2219
asa(dp2220
g2
VECON1820
p2221
sg4
(lp2222
sa(dp2223
g2
VECON1870
p2224
sg4
(lp2225
sa(dp2226
g2
VECON1940
p2227
sg4
(lp2228
sa(dp2229
g2
VECON2020
p2230
sg4
(lp2231
sa(dp2232
g2
VECON2040
p2233
sg4
(lp2234
S'9780262232586'
p2235
asa(dp2236
g2
VECON2060
p2237
sg4
(lp2238
sa(dp2239
g2
VECON2080
p2240
sg4
(lp2241
sa(dp2242
g2
VECON2090
p2243
sg4
(lp2244
sa(dp2245
g2
VECON2180
p2246
sg4
(lp2247
sa(dp2248
g2
VECON2360
p2249
sg4
(lp2250
sa(dp2251
g2
VECON2370
p2252
sg4
(lp2253
sa(dp2254
g2
VECON2470
p2255
sg4
(lp2256
sa(dp2257
g2
VECON2490
p2258
sg4
(lp2259
sa(dp2260
g2
VECON2660
p2261
sg4
(lp2262
S'9780691152875'
p2263
aS'9781441903198'
p2264
aS'9780691042893'
p2265
asa(dp2266
g2
VECON2840
p2267
sg4
(lp2268
sa(dp2269
g2
VECON2930
p2270
sg4
(lp2271
sa(dp2272
g2
VECON2950
p2273
sg4
(lp2274
sa(dp2275
g2
VECON2960
p2276
sg4
(lp2277
sa(dp2278
g2
VECON2970
p2279
sg4
(lp2280
sa(dp2281
g2
VEDUC0410B
p2282
sg4
(lp2283
sa(dp2284
g2
VEDUC0410E
p2285
sg4
(lp2286
S'9781452226101'
p2287
asa(dp2288
g2
VEDUC1070A
p2289
sg4
(lp2290
sa(dp2291
g2
VEDUC1070B
p2292
sg4
(lp2293
sa(dp2294
g2
VEDUC1070C
p2295
sg4
(lp2296
sa(dp2297
g2
VEDUC1080A
p2298
sg4
(lp2299
sa(dp2300
g2
VEDUC1080B
p2301
sg4
(lp2302
sa(dp2303
g2
VEDUC1080C
p2304
sg4
(lp2305
sa(dp2306
g2
VEDUC1100
p2307
sg4
(lp2308
S'9780226206837'
p2309
aS'9781412995306'
p2310
aS'9780807754047'
p2311
aS'9781452257877'
p2312
asa(dp2313
g2
VEDUC1110
p2314
sg4
(lp2315
S'9781597181099'
p2316
aS'9780138009007'
p2317
aS'9780130272959'
p2318
asa(dp2319
g2
VEDUC1150
p2320
sg4
(lp2321
sa(dp2322
g2
VEDUC1200
p2323
sg4
(lp2324
S'9780618872251'
p2325
aS'9780226983301'
p2326
aS'9780415948913'
p2327
aS'9780805088021'
p2328
aS'9780674962019'
p2329
aS'9780674892835'
p2330
aS'9780395755341'
p2331
aS'9780465087570'
p2332
asa(dp2333
g2
VEDUC1270
p2334
sg4
(lp2335
S'9781891792311'
p2336
aS'9780078035487'
p2337
asa(dp2338
g2
VEDUC1290
p2339
sg4
(lp2340
S'9780395710845'
p2341
aS'9780674179493'
p2342
asa(dp2343
g2
VEDUC1560
p2344
sg4
(lp2345
sa(dp2346
g2
VEDUC1580
p2347
sg4
(lp2348
S'9780521378048'
p2349
aS'9780205841745'
p2350
asa(dp2351
g2
VEDUC1690
p2352
sg4
(lp2353
S'9780325003214'
p2354
aS'9780743477109'
p2355
aS'9780807752005'
p2356
aS'9781612504605'
p2357
aS'9780307931894'
p2358
asa(dp2359
g2
VEDUC1730
p2360
sg4
(lp2361
S'9780674005327'
p2362
aS'9780226854564'
p2363
aS'BSNJZMMZC5NJ'
p2364
aS'9780486289991'
p2365
aS'9780826513649'
p2366
aS'9781403972897'
p2367
aS'9780618773558'
p2368
asa(dp2369
g2
VEDUC1770
p2370
sg4
(lp2371
S'9780226353739'
p2372
aS'9780813513591'
p2373
aS'9780767901260'
p2374
aS'9780807859315'
p2375
aS'9780470049181'
p2376
aS'9780446178433'
p2377
aS'9780814799697'
p2378
aS'9780143037477'
p2379
asa(dp2380
g2
VEDUC1860
p2381
sg4
(lp2382
sa(dp2383
g2
VEDUC2070A
p2384
sg4
(lp2385
sa(dp2386
g2
VEDUC2070B
p2387
sg4
(lp2388
sa(dp2389
g2
VEDUC2070C
p2390
sg4
(lp2391
sa(dp2392
g2
VEDUC2080A
p2393
sg4
(lp2394
sa(dp2395
g2
VEDUC2080B
p2396
sg4
(lp2397
sa(dp2398
g2
VEDUC2080C
p2399
sg4
(lp2400
sa(dp2401
g2
VEDUC2140
p2402
sg4
(lp2403
sa(dp2404
g2
VEDUC2150
p2405
sg4
(lp2406
sa(dp2407
g2
VEDUC2270
p2408
sg4
(lp2409
sa(dp2410
g2
VEDUC2280
p2411
sg4
(lp2412
sa(dp2413
g2
VEDUC2330
p2414
sg4
(lp2415
S'9781934742686'
p2416
aS'9780815723943'
p2417
aS'9780691088976'
p2418
aS'9781934742648'
p2419
asa(dp2420
g2
VEDUC2350
p2421
sg4
(lp2422
sa(dp2423
g2
VEDUC2360
p2424
sg4
(lp2425
S'9780199753864'
p2426
aS'9780691120355'
p2427
aS'9780138009007'
p2428
aS'9780395615560'
p2429
asa(dp2430
g2
VEDUC2380
p2431
sg4
(lp2432
sa(dp2433
g2
VEGYT1320
p2434
sg4
(lp2435
sa(dp2436
g2
VEGYT1430
p2437
sg4
(lp2438
S'9780520248427'
p2439
aS'9780192802934'
p2440
aS'9780715634356'
p2441
aS'9781589831384'
p2442
asa(dp2443
g2
VEGYT1465
p2444
sg4
(lp2445
S'9780853239918'
p2446
aS'9781405118569'
p2447
asa(dp2448
g2
VEGYT2210
p2449
sg4
(lp2450
S'9789042918108'
p2451
asa(dp2452
g2
VEGYT2410
p2453
sg4
(lp2454
sa(dp2455
g2
VEGYT2420
p2456
sg4
(lp2457
sa(dp2458
g2
VEINT2100
p2459
sg4
(lp2460
sa(dp2461
g2
VEINT2200
p2462
sg4
(lp2463
S'9781424088027'
p2464
asa(dp2465
g2
VEINT2300
p2466
sg4
(lp2467
S'9780130072535'
p2468
asa(dp2469
g2
VEINT2400
p2470
sg4
(lp2471
S'9780674021419'
p2472
asa(dp2473
g2
VEINT2500
p2474
sg4
(lp2475
S'9781438071657'
p2476
asa(dp2477
g2
VEMHL2030
p2478
sg4
(lp2479
S'9780470513019'
p2480
aS'9780199754557'
p2481
aS'9780195108248'
p2482
asa(dp2483
g2
VEMHL2040
p2484
sg4
(lp2485
S'9780195159684'
p2486
asa(dp2487
g2
VENGL0110
p2488
sg4
(lp2489
S'9780826427861'
p2490
aS'9780312610685'
p2491
aS'9780978515690'
p2492
aS'9780872209442'
p2493
asa(dp2494
g2
VENGL0130
p2495
sg4
(lp2496
S'9780979956294'
p2497
aS'9780544003439'
p2498
aS'9780140296471'
p2499
aS'9780802776754'
p2500
aS'9780313391941'
p2501
aS'9780393340730'
p2502
aS'9780811216944'
p2503
aS'9780374531386'
p2504
asa(dp2505
g2
VENGL0160
p2506
sg4
(lp2507
S'9780060891541'
p2508
aS'9780495166290'
p2509
asa(dp2510
g2
VENGL0180
p2511
sg4
(lp2512
S'9780520261297'
p2513
aS'9780375714689'
p2514
aS'9781416531746'
p2515
aS'9780316776967'
p2516
aS'9780812931297'
p2517
aS'9781933517599'
p2518
aS'9782330023416'
p2519
aS'9780312447069'
p2520
asa(dp2521
g2
VENGL0201W
p2522
sg4
(lp2523
S'9780743451796'
p2524
aS'9780393332148'
p2525
aS'9780679720393'
p2526
aS'9780140131550'
p2527
aS'9780679722618'
p2528
aS'9781558615052'
p2529
aS'9781558614550'
p2530
asa(dp2531
g2
VENGL0201Y
p2532
sg4
(lp2533
S'9780679731801'
p2534
aS'9780141180281'
p2535
aS'9780802131935'
p2536
aS'9780142437834'
p2537
aS'9780679723417'
p2538
aS'9780375726347'
p2539
aS'9780140255850'
p2540
aS'9780140274981'
p2541
aS'9780520201224'
p2542
aS'9781590171998'
p2543
aS'9780812978179'
p2544
asa(dp2545
g2
VENGL0201Z
p2546
sg4
(lp2547
sa(dp2548
g2
VENGL0202A
p2549
sg4
(lp2550
sa(dp2551
g2
VENGL0300K
p2552
sg4
(lp2553
S'9780679443704'
p2554
aS'9780679750161'
p2555
aS'9780140714616'
p2556
aS'9780140422535'
p2557
aS'9780679429067'
p2558
aS'9781564784131'
p2559
aS'9780195019056'
p2560
aS'9780140714845'
p2561
asa(dp2562
g2
VENGL0310A
p2563
sg4
(lp2564
S'9780140714852'
p2565
aS'9780140714739'
p2566
aS'9780140714883'
p2567
aS'9780140714548'
p2568
aS'9780140714845'
p2569
aS'9780140714913'
p2570
aS'9780140714784'
p2571
aS'9780140714630'
p2572
asa(dp2573
g2
VENGL0310C
p2574
sg4
(lp2575
S'9780140447590'
p2576
aS'9780375753220'
p2577
aS'9780199555079'
p2578
aS'9780345277602'
p2579
asa(dp2580
g2
VENGL0500G
p2581
sg4
(lp2582
S'9780393913019'
p2583
aS'9780393913095'
p2584
aS'9780393912470'
p2585
asa(dp2586
g2
VENGL0500N
p2587
sg4
(lp2588
S'9781592403110'
p2589
aS'9780393964585'
p2590
aS'9780205223169'
p2591
asa(dp2592
g2
VENGL0510R
p2593
sg4
(lp2594
S'9780143036661'
p2595
aS'9781598531121'
p2596
aS'9780812975093'
p2597
aS'9780140390032'
p2598
aS'9780316184151'
p2599
aS'9780812970319'
p2600
aS'9780393976410'
p2601
aS'9780691096124'
p2602
asa(dp2603
g2
VENGL0700E
p2604
sg4
(lp2605
S'9780679745204'
p2606
aS'9780472064687'
p2607
aS'9780394757605'
p2608
aS'9780393960129'
p2609
aS'9780140074482'
p2610
aS'9780618329960'
p2611
aS'9781590173022'
p2612
aS'9780374527358'
p2613
asa(dp2614
g2
VENGL0700G
p2615
sg4
(lp2616
S'9781598531138'
p2617
aS'9780307278449'
p2618
aS'9780812978186'
p2619
aS'9780451527608'
p2620
aS'9780451522733'
p2621
aS'9780385498203'
p2622
aS'9780743273565'
p2623
aS'9780156106757'
p2624
aS'9780811218221'
p2625
aS'9780140077025'
p2626
asa(dp2627
g2
VENGL0710K
p2628
sg4
(lp2629
S'9780803261204'
p2630
aS'9780679720218'
p2631
aS'9780060923242'
p2632
aS'9780375756573'
p2633
aS'9780307387943'
p2634
aS'9780674027466'
p2635
asa(dp2636
g2
VENGL0710M
p2637
sg4
(lp2638
S'9780199585946'
p2639
aS'9780156907392'
p2640
aS'9780714838267'
p2641
aS'9780812982701'
p2642
aS'9780486266848'
p2643
aS'9780141441375'
p2644
aS'9780486280509'
p2645
aS'9780486264646'
p2646
aS'9780451531278'
p2647
aS'9780679724636'
p2648
asa(dp2649
g2
VENGL0760O
p2650
sg4
(lp2651
S'9780156034029'
p2652
aS'9780385495820'
p2653
aS'9781551117843'
p2654
aS'9781933372662'
p2655
aS'9780231141529'
p2656
aS'9780140238105'
p2657
aS'9780143118091'
p2658
aS'9780385720144'
p2659
aS'9781250003751'
p2660
aS'9780061189432'
p2661
asa(dp2662
g2
VENGL1140A
p2663
sg4
(lp2664
S'9780415258951'
p2665
asa(dp2666
g2
VENGL1160F
p2667
sg4
(lp2668
S'9781433114496'
p2669
aS'9780679745587'
p2670
asa(dp2671
g2
VENGL1180I
p2672
sg4
(lp2673
S'9781595587770'
p2674
aS'9780393348743'
p2675
aS'9780964461635'
p2676
aS'9781935955054'
p2677
aS'9781439170915'
p2678
asa(dp2679
g2
VENGL1180Q
p2680
sg4
(lp2681
sa(dp2682
g2
VENGL1180R
p2683
sg4
(lp2684
sa(dp2685
g2
VENGL1190A
p2686
sg4
(lp2687
sa(dp2688
g2
VENGL1190Q
p2689
sg4
(lp2690
S'9780618035809'
p2691
aS'9780547840093'
p2692
asa(dp2693
g2
VENGL1310H
p2694
sg4
(lp2695
sa(dp2696
g2
VENGL1311E
p2697
sg4
(lp2698
S'9781133307273'
p2699
aS'9781133957546'
p2700
asa(dp2701
g2
VENGL1360F
p2702
sg4
(lp2703
S'9780881339505'
p2704
aS'9780393976397'
p2705
aS'9780140447590'
p2706
aS'9780375753220'
p2707
aS'9780141441436'
p2708
asa(dp2709
g2
VENGL1360W
p2710
sg4
(lp2711
S'9781551113678'
p2712
aS'9781551111735'
p2713
aS'9781551110158'
p2714
aS'9780140433388'
p2715
aS'9780199549672'
p2716
asa(dp2717
g2
VENGL1360X
p2718
sg4
(lp2719
S'9780816680689'
p2720
aS'9780140424553'
p2721
aS'9780140422771'
p2722
aS'9780141191577'
p2723
asa(dp2724
g2
VENGL1360Z
p2725
sg4
(lp2726
S'9781903436059'
p2727
aS'9781903436028'
p2728
aS'9781903436875'
p2729
asa(dp2730
g2
VENGL1510A
p2731
sg4
(lp2732
S'9780393911534'
p2733
aS'9780393978506'
p2734
aS'9780393977516'
p2735
aS'9780199540242'
p2736
aS'9780199539222'
p2737
aS'9780199554720'
p2738
aS'9780199536931'
p2739
aS'9780393976045'
p2740
aS'9780393927641'
p2741
aS'9780393967913'
p2742
aS'9780393311693'
p2743
asa(dp2744
g2
VENGL1511K
p2745
sg4
(lp2746
S'9780199537419'
p2747
aS'9781551116006'
p2748
aS'9780393960181'
p2749
aS'9780393970128'
p2750
aS'9780192840820'
p2751
aS'9780199535682'
p2752
aS'9780393964585'
p2753
aS'9780192833945'
p2754
asa(dp2755
g2
VENGL1511M
p2756
sg4
(lp2757
S'9780486404257'
p2758
aS'9780199536313'
p2759
aS'9781853260025'
p2760
aS'9780395051283'
p2761
aS'9780199535590'
p2762
aS'9780199536757'
p2763
aS'9780486264783'
p2764
aS'9780192834027'
p2765
asa(dp2766
g2
VENGL1560R
p2767
sg4
(lp2768
S'9780571169344'
p2769
aS'9780684829463'
p2770
aS'9780802130594'
p2771
aS'9780521457309'
p2772
aS'9780140439120'
p2773
aS'9780199536955'
p2774
aS'9780141439471'
p2775
aS'9780393950755'
p2776
aS'9781107604636'
p2777
asa(dp2778
g2
VENGL1560W
p2779
sg4
(lp2780
S'9780141439556'
p2781
aS'9780141439686'
p2782
aS'9780199563272'
p2783
aS'9781551111261'
p2784
aS'9781551114682'
p2785
asa(dp2786
g2
VENGL1710I
p2787
sg4
(lp2788
S'9780061120060'
p2789
aS'9781555530242'
p2790
aS'9780871402103'
p2791
aS'9780486461342'
p2792
aS'9780809015498'
p2793
aS'9780252068607'
p2794
aS'9781555530631'
p2795
aS'9780807009192'
p2796
aS'9780156106757'
p2797
aS'9780813511702'
p2798
asa(dp2799
g2
VENGL1711A
p2800
sg4
(lp2801
S'9780811209588'
p2802
aS'9780156806473'
p2803
aS'9780140188516'
p2804
aS'9780679728184'
p2805
aS'9780811201629'
p2806
aS'9780811213998'
p2807
aS'9780679726692'
p2808
asa(dp2809
g2
VENGL1760Q
p2810
sg4
(lp2811
S'9780415138581'
p2812
aS'9780393926798'
p2813
aS'9780679723424'
p2814
aS'9780679722762'
p2815
aS'9780156030359'
p2816
aS'9780802150912'
p2817
aS'9780393978513'
p2818
asa(dp2819
g2
VENGL1761P
p2820
sg4
(lp2821
S'9780811213264'
p2822
aS'9780811201629'
p2823
aS'9780156332255'
p2824
aS'9780393974973'
p2825
aS'9780156806473'
p2826
asa(dp2827
g2
VENGL1762B
p2828
sg4
(lp2829
S'9780307278357'
p2830
aS'9780151013487'
p2831
aS'9780802137838'
p2832
aS'9780143037897'
p2833
aS'9780307388742'
p2834
aS'9780670014651'
p2835
aS'9780374534356'
p2836
aS'9780865479449'
p2837
aS'9780375756580'
p2838
aS'9780385721790'
p2839
asa(dp2840
g2
VENGL1900T
p2841
sg4
(lp2842
S'9780140096231'
p2843
aS'9780812976533'
p2844
asa(dp2845
g2
VENGL1901E
p2846
sg4
(lp2847
sa(dp2848
g2
VENGL1910E
p2849
sg4
(lp2850
S'9780393979985'
p2851
aS'9780253213174'
p2852
aS'9781405101165'
p2853
asa(dp2854
g2
VENGL1950E
p2855
sg4
(lp2856
S'9780816614004'
p2857
aS'9780816670215'
p2858
aS'9780816616770'
p2859
aS'9780374532338'
p2860
asa(dp2861
g2
VENGL1992
p2862
sg4
(lp2863
sa(dp2864
g2
VENGL1994
p2865
sg4
(lp2866
sa(dp2867
g2
VENGL2360U
p2868
sg4
(lp2869
S'9780195083613'
p2870
aS'9780140424553'
p2871
aS'9780812220193'
p2872
aS'9780199539185'
p2873
aS'9780816680689'
p2874
aS'9780141191577'
p2875
aS'9780872861909'
p2876
asa(dp2877
g2
VENGL2561G
p2878
sg4
(lp2879
S'9780691123875'
p2880
aS'9780226092317'
p2881
aS'9780140443202'
p2882
aS'9780199535552'
p2883
aS'9780140434279'
p2884
aS'9780375726330'
p2885
aS'9780199538584'
p2886
aS'9780374532352'
p2887
aS'9780199538546'
p2888
aS'9780141441283'
p2889
asa(dp2890
g2
VENGL2760Y
p2891
sg4
(lp2892
S'9780618485222'
p2893
aS'9780878057658'
p2894
aS'9780156034029'
p2895
aS'9781559362221'
p2896
aS'9780143124870'
p2897
aS'9780394740676'
p2898
aS'9780375701931'
p2899
aS'9781559363266'
p2900
aS'9781568582702'
p2901
aS'9781566892391'
p2902
asa(dp2903
g2
VENGL2900T
p2904
sg4
(lp2905
S'9780393007695'
p2906
aS'9780393317756'
p2907
aS'9780393329254'
p2908
aS'9780393314038'
p2909
aS'9780393008470'
p2910
aS'9780465019779'
p2911
asa(dp2912
g2
VENGL2900U
p2913
sg4
(lp2914
S'9781844673476'
p2915
aS'9780679753353'
p2916
aS'9780823229536'
p2917
aS'9781781680841'
p2918
aS'9780816666157'
p2919
aS'9780226321424'
p2920
aS'9780822346333'
p2921
asa(dp2922
g2
VENGN0020
p2923
sg4
(lp2924
sa(dp2925
g2
VENGN0040
p2926
sg4
(lp2927
sa(dp2928
g2
VENGN0120A
p2929
sg4
(lp2930
sa(dp2931
g2
VENGN0120B
p2932
sg4
(lp2933
sa(dp2934
g2
VENGN0260
p2935
sg4
(lp2936
sa(dp2937
g2
VENGN0520
p2938
sg4
(lp2939
S'9780073380575'
p2940
asa(dp2941
g2
VENGN0720
p2942
sg4
(lp2943
S'9780470495902'
p2944
asa(dp2945
g2
VENGN0900
p2946
sg4
(lp2947
S'BSMJK1NMY0ZJ'
p2948
aS'BSNWU0MZHLYZ'
p2949
aS'BSZGE3YMU3MZ'
p2950
asa(dp2951
g2
VENGN0930A
p2952
sg4
(lp2953
S'BSNTRLNZRIMG'
p2954
asa(dp2955
g2
VENGN0930C
p2956
sg4
(lp2957
sa(dp2958
g2
VENGN0931
p2959
sg4
(lp2960
sa(dp2961
g2
VENGN1000
p2962
sg4
(lp2963
sa(dp2964
g2
VENGN1010
p2965
sg4
(lp2966
sa(dp2967
g2
VENGN1110
p2968
sg4
(lp2969
S'9780131569881'
p2970
asa(dp2971
g2
VENGN1140
p2972
sg4
(lp2973
sa(dp2974
g2
VENGN1210
p2975
sg4
(lp2976
S'9780521172967'
p2977
asa(dp2978
g2
VENGN1220
p2979
sg4
(lp2980
sa(dp2981
g2
VENGN1300
p2982
sg4
(lp2983
sa(dp2984
g2
VENGN1340
p2985
sg4
(lp2986
sa(dp2987
g2
VENGN1360
p2988
sg4
(lp2989
S'9780134843940'
p2990
asa(dp2991
g2
VENGN1370
p2992
sg4
(lp2993
S'9780534408961'
p2994
asa(dp2995
g2
VENGN1420
p2996
sg4
(lp2997
S'9781420062106'
p2998
asa(dp2999
g2
VENGN1440
p3000
sg4
(lp3001
sa(dp3002
g2
VENGN1480
p3003
sg4
(lp3004
S'9781420062106'
p3005
asa(dp3006
g2
VENGN1580
p3007
sg4
(lp3008
S'9780195331455'
p3009
aS'9780132126953'
p3010
asa(dp3011
g2
VENGN1620
p3012
sg4
(lp3013
S'9781118156322'
p3014
asa(dp3015
g2
VENGN1640
p3016
sg4
(lp3017
S'9780124077263'
p3018
asa(dp3019
g2
VENGN1690
p3020
sg4
(lp3021
S'9780470402290'
p3022
asa(dp3023
g2
VENGN1710
p3024
sg4
(lp3025
S'9780470501979'
p3026
asa(dp3027
g2
VENGN1720
p3028
sg4
(lp3029
S'9780768004403'
p3030
asa(dp3031
g2
VENGN1740
p3032
sg4
(lp3033
sa(dp3034
g2
VENGN1760
p3035
sg4
(lp3036
sa(dp3037
g2
VENGN1860
p3038
sg4
(lp3039
sa(dp3040
g2
VENGN1930B
p3041
sg4
(lp3042
sa(dp3043
g2
VENGN1930D
p3044
sg4
(lp3045
sa(dp3046
g2
VENGN1930U
p3047
sg4
(lp3048
sa(dp3049
g2
VENGN1931A
p3050
sg4
(lp3051
S'9781849711425'
p3052
asa(dp3053
g2
VENGN2020
p3054
sg4
(lp3055
sa(dp3056
g2
VENGN2120
p3057
sg4
(lp3058
sa(dp3059
g2
VENGN2140
p3060
sg4
(lp3061
sa(dp3062
g2
VENGN2160
p3063
sg4
(lp3064
sa(dp3065
g2
VENGN2220
p3066
sg4
(lp3067
sa(dp3068
g2
VENGN2290
p3069
sg4
(lp3070
sa(dp3071
g2
VENGN2400
p3072
sg4
(lp3073
S'9780387765020'
p3074
asa(dp3075
g2
VENGN2420
p3076
sg4
(lp3077
S'9781420062106'
p3078
asa(dp3079
g2
VENGN2500
p3080
sg4
(lp3081
sa(dp3082
g2
VENGN2600
p3083
sg4
(lp3084
sa(dp3085
g2
VENGN2760
p3086
sg4
(lp3087
sa(dp3088
g2
VENGN2820
p3089
sg4
(lp3090
sa(dp3091
g2
VENGN2910G
p3092
sg4
(lp3093
sa(dp3094
g2
VENGN2910S
p3095
sg4
(lp3096
sa(dp3097
g2
VENGN2910Z
p3098
sg4
(lp3099
sa(dp3100
g2
VENGN2911F
p3101
sg4
(lp3102
sa(dp3103
g2
VENGN2912E
p3104
sg4
(lp3105
sa(dp3106
g2
VENGN2912P
p3107
sg4
(lp3108
sa(dp3109
g2
VENGN2920B
p3110
sg4
(lp3111
sa(dp3112
g2
VENVS0520
p3113
sg4
(lp3114
sa(dp3115
g2
VENVS1100
p3116
sg4
(lp3117
sa(dp3118
g2
VENVS1355
p3119
sg4
(lp3120
sa(dp3121
g2
VENVS1410
p3122
sg4
(lp3123
S'9780735577701'
p3124
aS'9781452203300'
p3125
asa(dp3126
g2
VENVS1509
p3127
sg4
(lp3128
sa(dp3129
g2
VENVS1555
p3130
sg4
(lp3131
S'9780143118718'
p3132
aS'9781597265881'
p3133
aS'9781616144586'
p3134
asa(dp3135
g2
VENVS1720
p3136
sg4
(lp3137
sa(dp3138
g2
VENVS1755
p3139
sg4
(lp3140
sa(dp3141
g2
VENVS1929
p3142
sg4
(lp3143
S'9780231084192'
p3144
aS'BSZTZLY2YYMZ'
p3145
asa(dp3146
g2
VENVS1965
p3147
sg4
(lp3148
S'9781597266642'
p3149
aS'9780674066052'
p3150
asa(dp3151
g2
VENVS2680
p3152
sg4
(lp3153
sa(dp3154
g2
VETHN0500
p3155
sg4
(lp3156
sa(dp3157
g2
VETHN0512
p3158
sg4
(lp3159
S'9780143119289'
p3160
aS'9780679781424'
p3161
aS'9781558850835'
p3162
aS'9780375714719'
p3163
aS'9781565129757'
p3164
aS'9780553382518'
p3165
aS'9780140157659'
p3166
aS'9781594483295'
p3167
aS'9780931122743'
p3168
aS'9780306814525'
p3169
aS'9781401203689'
p3170
asa(dp3171
g2
VETHN0980
p3172
sg4
(lp3173
sa(dp3174
g2
VETHN1890G
p3175
sg4
(lp3176
S'9780816631612'
p3177
aS'9780300080674'
p3178
aS'9780803277908'
p3179
asa(dp3180
g2
VETHN1890H
p3181
sg4
(lp3182
sa(dp3183
g2
VETHN1890R
p3184
sg4
(lp3185
S'9780943219226'
p3186
aS'9781400049240'
p3187
aS'9781558618077'
p3188
aS'9781558855083'
p3189
aS'9781880684948'
p3190
aS'9780871297259'
p3191
aS'9781558617032'
p3192
aS'9780679738565'
p3193
aS'9780684853680'
p3194
asa(dp3195
g2
VETHN1890S
p3196
sg4
(lp3197
sa(dp3198
g2
VETHN1900B
p3199
sg4
(lp3200
S'9780415910125'
p3201
aS'9780805856606'
p3202
aS'9780774402705'
p3203
aS'9780072855135'
p3204
aS'9780252075551'
p3205
asa(dp3206
g2
VETHN1900E
p3207
sg4
(lp3208
sa(dp3209
g2
VETHN1900H
p3210
sg4
(lp3211
sa(dp3212
g2
VETHN1900J
p3213
sg4
(lp3214
sa(dp3215
g2
VFREN0200
p3216
sg4
(lp3217
S'9782090333084'
p3218
aS'9782090332438'
p3219
aS'9780395240052'
p3220
asa(dp3221
g2
VFREN0400
p3222
sg4
(lp3223
S'9782253012351'
p3224
asa(dp3225
g2
VFREN0500
p3226
sg4
(lp3227
S'9782290351307'
p3228
aS'9782012358614'
p3229
aS'9782090338485'
p3230
aS'9782210754676'
p3231
aS'9782321002130'
p3232
asa(dp3233
g2
VFREN0600
p3234
sg4
(lp3235
S'9782321002130'
p3236
aS'9780205646999'
p3237
aS'9782266147170'
p3238
asa(dp3239
g2
VFREN0610
p3240
sg4
(lp3241
S'9782321002130'
p3242
aS'9780205646999'
p3243
asa(dp3244
g2
VFREN0720A
p3245
sg4
(lp3246
S'9782253193142'
p3247
aS'9782070413119'
p3248
aS'9782047303788'
p3249
aS'9782070388325'
p3250
asa(dp3251
g2
VFREN0750F
p3252
sg4
(lp3253
S'9782070422722'
p3254
aS'9782264038340'
p3255
aS'9782708705319'
p3256
aS'9782707167637'
p3257
asa(dp3258
g2
VFREN1510G
p3259
sg4
(lp3260
S'9780205646999'
p3261
aS'9782070411412'
p3262
aS'9782501061636'
p3263
asa(dp3264
g2
VFREN1610A
p3265
sg4
(lp3266
sa(dp3267
g2
VFREN1900A
p3268
sg4
(lp3269
S'9782070370603'
p3270
aS'9782070417209'
p3271
aS'9782035859167'
p3272
aS'9782070328284'
p3273
aS'9782070707508'
p3274
aS'9782203001848'
p3275
aS'9782070377077'
p3276
aS'9782290339121'
p3277
asa(dp3278
g2
VFREN2130D
p3279
sg4
(lp3280
sa(dp3281
g2
VFREN2170J
p3282
sg4
(lp3283
S'9782081212411'
p3284
aS'9782266073554'
p3285
aS'9780803283671'
p3286
asa(dp3287
g2
VFRENSUPP
p3288
sg4
(lp3289
S'9782253150718'
p3290
aS'9782070368075'
p3291
aS'9782253166863'
p3292
aS'9782070440252'
p3293
aS'9782742749256'
p3294
aS'9782266195584'
p3295
aS'9782070416806'
p3296
aS'9782070391653'
p3297
aS'9782070368167'
p3298
aS'9782070360420'
p3299
asa(dp3300
g2
VGEOL0010
p3301
sg4
(lp3302
S'9780321814067'
p3303
asa(dp3304
g2
VGEOL0070
p3305
sg4
(lp3306
S'9781111990848'
p3307
asa(dp3308
g2
VGEOL0230
p3309
sg4
(lp3310
S'9781582381244'
p3311
asa(dp3312
g2
VGEOL0240
p3313
sg4
(lp3314
S'9780321597793'
p3315
asa(dp3316
g2
VGEOL0810
p3317
sg4
(lp3318
sa(dp3319
g2
VGEOL1100
p3320
sg4
(lp3321
sa(dp3322
g2
VGEOL1150
p3323
sg4
(lp3324
S'9780130337757'
p3325
asa(dp3326
g2
VGEOL1310
p3327
sg4
(lp3328
sa(dp3329
g2
VGEOL1330
p3330
sg4
(lp3331
S'9780415310840'
p3332
asa(dp3333
g2
VGEOL1350
p3334
sg4
(lp3335
S'9780321769633'
p3336
asa(dp3337
g2
VGEOL1420
p3338
sg4
(lp3339
sa(dp3340
g2
VGEOL1450
p3341
sg4
(lp3342
S'9780393924671'
p3343
asa(dp3344
g2
VGEOL1510
p3345
sg4
(lp3346
sa(dp3347
g2
VGEOL1560
p3348
sg4
(lp3349
sa(dp3350
g2
VGEOL1660
p3351
sg4
(lp3352
sa(dp3353
g2
VGEOL1960F
p3354
sg4
(lp3355
sa(dp3356
g2
VGEOL2350
p3357
sg4
(lp3358
sa(dp3359
g2
VGEOL2520
p3360
sg4
(lp3361
sa(dp3362
g2
VGEOL2860
p3363
sg4
(lp3364
S'9780632054435'
p3365
asa(dp3366
g2
VGEOL2870
p3367
sg4
(lp3368
S'9780816529452'
p3369
asa(dp3370
g2
VGEOL2920D
p3371
sg4
(lp3372
sa(dp3373
g2
VGEOL2920E
p3374
sg4
(lp3375
sa(dp3376
g2
VGEOL2920N
p3377
sg4
(lp3378
sa(dp3379
g2
VGEOL2920V
p3380
sg4
(lp3381
sa(dp3382
g2
VGNSS0090C
p3383
sg4
(lp3384
sa(dp3385
g2
VGNSS0120
p3386
sg4
(lp3387
sa(dp3388
g2
VGNSS1960B
p3389
sg4
(lp3390
S'9780299153243'
p3391
aS'9780226726793'
p3392
aS'9780679733768'
p3393
aS'9780674357082'
p3394
aS'9780312421700'
p3395
asa(dp3396
g2
VGNSS1960U
p3397
sg4
(lp3398
sa(dp3399
g2
VGNSS1960V
p3400
sg4
(lp3401
S'9780520082090'
p3402
aS'9780060975401'
p3403
aS'9780679740483'
p3404
asa(dp3405
g2
VGNSS2020G
p3406
sg4
(lp3407
sa(dp3408
g2
VGREK0110
p3409
sg4
(lp3410
S'9780823216635'
p3411
asa(dp3412
g2
VGREK0200
p3413
sg4
(lp3414
S'9780195149579'
p3415
aS'9780195149555'
p3416
asa(dp3417
g2
VGREK0400
p3418
sg4
(lp3419
S'9780929524191'
p3420
aS'9780806140254'
p3421
asa(dp3422
g2
VGREK1010
p3423
sg4
(lp3424
S'9780929524757'
p3425
aS'9780198145950'
p3426
aS'9780929524047'
p3427
aS'9780929524559'
p3428
asa(dp3429
g2
VGREK1110B
p3430
sg4
(lp3431
S'9780521612593'
p3432
aS'9780806142593'
p3433
asa(dp3434
g2
VGREK1111A
p3435
sg4
(lp3436
S'9780521603041'
p3437
asa(dp3438
g2
VGRMN0200
p3439
sg4
(lp3440
sa(dp3441
g2
VGRMN0400
p3442
sg4
(lp3443
sa(dp3444
g2
VGRMN0600B
p3445
sg4
(lp3446
S'9783150018583'
p3447
aS'9783150031797'
p3448
aS'9783150153253'
p3449
aS'9783150153017'
p3450
aS'9783150153055'
p3451
aS'9783150153277'
p3452
aS'9783150022535'
p3453
aS'9783150003480'
p3454
asa(dp3455
g2
VGRMN0750E
p3456
sg4
(lp3457
sa(dp3458
g2
VGRMN1200B
p3459
sg4
(lp3460
S'9780226142814'
p3461
aS'9780393001433'
p3462
aS'9780872201132'
p3463
aS'9780226738925'
p3464
asa(dp3465
g2
VGRMN1440P
p3466
sg4
(lp3467
S'9780679767879'
p3468
aS'9780142180006'
p3469
aS'9780192832184'
p3470
aS'9780140447668'
p3471
aS'9780140445039'
p3472
aS'9780805211061'
p3473
aS'9780811215695'
p3474
aS'9780691043449'
p3475
aS'9780140445862'
p3476
aS'9780679732457'
p3477
aS'9780679768029'
p3478
aS'9780451530325'
p3479
aS'9780679764069'
p3480
aS'9780881335743'
p3481
asa(dp3482
g2
VGRMN1440Q
p3483
sg4
(lp3484
S'9783150018583'
p3485
aS'9783150160329'
p3486
aS'9783150061725'
p3487
aS'9783150160268'
p3488
aS'9783150081457'
p3489
aS'9783150002186'
p3490
aS'9783871620270'
p3491
asa(dp3492
g2
VGRMN1900F
p3493
sg4
(lp3494
S'9783499228872'
p3495
aS'9783406600678'
p3496
aS'9783518461976'
p3497
aS'9783791530123'
p3498
aS'9783150184530'
p3499
aS'9783596148479'
p3500
asa(dp3501
g2
VGRMN2320E
p3502
sg4
(lp3503
S'9780486437392'
p3504
aS'9780140443592'
p3505
aS'9780393912524'
p3506
asa(dp3507
g2
VGRMN2660R
p3508
sg4
(lp3509
S'9780521398374'
p3510
aS'9780393933512'
p3511
aS'9780872200685'
p3512
aS'9783618680130'
p3513
aS'9783518270141'
p3514
aS'9780717800568'
p3515
aS'9783518270035'
p3516
aS'9782081275232'
p3517
aS'9783787311149'
p3518
aS'9783423129190'
p3519
aS'9780872207431'
p3520
asa(dp3521
g2
VGRMN2660T
p3522
sg4
(lp3523
sa(dp3524
g2
VHIAA0010
p3525
sg4
(lp3526
sa(dp3527
g2
VHIAA0030
p3528
sg4
(lp3529
sa(dp3530
g2
VHIAA0090
p3531
sg4
(lp3532
S'9781861898784'
p3533
aS'9781861894007'
p3534
asa(dp3535
g2
VHIAA0100
p3536
sg4
(lp3537
sa(dp3538
g2
VHIAA0630
p3539
sg4
(lp3540
sa(dp3541
g2
VHIAA0810
p3542
sg4
(lp3543
S'9781606061060'
p3544
aS'9780192842282'
p3545
aS'9780192842053'
p3546
aS'9780500289518'
p3547
asa(dp3548
g2
VHIAA1040C
p3549
sg4
(lp3550
sa(dp3551
g2
VHIAA1050
p3552
sg4
(lp3553
sa(dp3554
g2
VHIAA1190
p3555
sg4
(lp3556
S'9781137358325'
p3557
aS'9780816649402'
p3558
asa(dp3559
g2
VHIAA1200C
p3560
sg4
(lp3561
sa(dp3562
g2
VHIAA1410D
p3563
sg4
(lp3564
sa(dp3565
g2
VHIAA1560A
p3566
sg4
(lp3567
sa(dp3568
g2
VHIAA1600A
p3569
sg4
(lp3570
S'9781419703096'
p3571
aS'9780714839745'
p3572
asa(dp3573
g2
VHIAA1930
p3574
sg4
(lp3575
sa(dp3576
g2
VHIAA2440D
p3577
sg4
(lp3578
sa(dp3579
g2
VHIAA2550C
p3580
sg4
(lp3581
sa(dp3582
g2
VHIAA2870H
p3583
sg4
(lp3584
S'9780262135085'
p3585
aS'9780822342038'
p3586
aS'9780262017732'
p3587
aS'9780262524421'
p3588
aS'9781444338669'
p3589
aS'9780226764313'
p3590
aS'9780691150444'
p3591
aS'9780415988803'
p3592
asa(dp3593
g2
VHISP0200
p3594
sg4
(lp3595
S'9781118099308'
p3596
asa(dp3597
g2
VHISP0300
p3598
sg4
(lp3599
S'9781256839675'
p3600
aS'9781256839279'
p3601
asa(dp3602
g2
VHISP0400
p3603
sg4
(lp3604
S'9781256839675'
p3605
aS'9781256839279'
p3606
asa(dp3607
g2
VHISP0500
p3608
sg4
(lp3609
S'9781111838010'
p3610
aS'9781111837945'
p3611
asa(dp3612
g2
VHISP0600
p3613
sg4
(lp3614
sa(dp3615
g2
VHISP0710A
p3616
sg4
(lp3617
sa(dp3618
g2
VHISP0730
p3619
sg4
(lp3620
sa(dp3621
g2
VHISP0740
p3622
sg4
(lp3623
S'9781285053837'
p3624
asa(dp3625
g2
VHISP0750B
p3626
sg4
(lp3627
sa(dp3628
g2
VHISP1260B
p3629
sg4
(lp3630
sa(dp3631
g2
VHISP1260E
p3632
sg4
(lp3633
S'9788437627359'
p3634
aS'9788437627342'
p3635
asa(dp3636
g2
VHISP1290U
p3637
sg4
(lp3638
S'9780198151999'
p3639
aS'9780192803771'
p3640
asa(dp3641
g2
VHISP1370B
p3642
sg4
(lp3643
S'9780307475442'
p3644
aS'9789685863001'
p3645
aS'9780307474728'
p3646
aS'9781400034956'
p3647
aS'9780307475787'
p3648
asa(dp3649
g2
VHISP1700A
p3650
sg4
(lp3651
sa(dp3652
g2
VHISP2160J
p3653
sg4
(lp3654
sa(dp3655
g2
VHISP2160M
p3656
sg4
(lp3657
sa(dp3658
g2
VHISP2250E
p3659
sg4
(lp3660
sa(dp3661
g2
VHISP2250L
p3662
sg4
(lp3663
S'9788437609003'
p3664
aS'9788437604251'
p3665
aS'9788437600413'
p3666
aS'9788437604558'
p3667
aS'9788437604541'
p3668
aS'9788437627359'
p3669
aS'9788437618685'
p3670
aS'9788437627342'
p3671
asa(dp3672
g2
VHISP2350D
p3673
sg4
(lp3674
sa(dp3675
g2
VHISP2350E
p3676
sg4
(lp3677
S'9789685863001'
p3678
aS'9786074451849'
p3679
aS'9788437604183'
p3680
aS'9780307474728'
p3681
aS'9788437613215'
p3682
aS'9780375700637'
p3683
aS'9788492865574'
p3684
aS'9788466319058'
p3685
asa(dp3686
g2
VHIST0150B
p3687
sg4
(lp3688
S'9780226103792'
p3689
aS'9780226577029'
p3690
aS'9781408110201'
p3691
asa(dp3692
g2
VHIST0520
p3693
sg4
(lp3694
S'9780307339836'
p3695
aS'9781285430836'
p3696
aS'9780877225003'
p3697
aS'9780807854136'
p3698
aS'9781890771300'
p3699
aS'9780451529831'
p3700
aS'9780809089246'
p3701
asa(dp3702
g2
VHIST0970S
p3703
sg4
(lp3704
S'9780691096193'
p3705
aS'9781457617881'
p3706
aS'9780470655467'
p3707
aS'9780252065934'
p3708
asa(dp3709
g2
VHIST0980B
p3710
sg4
(lp3711
S'9781852421519'
p3712
aS'9780804710138'
p3713
aS'9780691147987'
p3714
aS'9780804757225'
p3715
aS'9780226733081'
p3716
aS'9780521269506'
p3717
aS'9780801474545'
p3718
aS'9780312111670'
p3719
asa(dp3720
g2
VHIST1000A
p3721
sg4
(lp3722
S'9780520083493'
p3723
aS'9780140440393'
p3724
aS'9780140449358'
p3725
aS'9780140442533'
p3726
asa(dp3727
g2
VHIST1210
p3728
sg4
(lp3729
S'9780393090406'
p3730
aS'9780140433166'
p3731
aS'9780141439679'
p3732
aS'9780451527714'
p3733
aS'9780199540457'
p3734
aS'9780520082700'
p3735
aS'9780192801586'
p3736
aS'9780023513206'
p3737
aS'9780393310696'
p3738
aS'9780140432046'
p3739
asa(dp3740
g2
VHIST1290
p3741
sg4
(lp3742
S'9780300152807'
p3743
aS'9780230574458'
p3744
aS'9780300100181'
p3745
aS'9780141016528'
p3746
aS'9780312165741'
p3747
asa(dp3748
g2
VHIST1301
p3749
sg4
(lp3750
S'9780262531078'
p3751
aS'9780393308730'
p3752
aS'9780226764177'
p3753
aS'9780801438684'
p3754
aS'9780226871462'
p3755
aS'9780691009032'
p3756
aS'9780262631594'
p3757
aS'9780521270649'
p3758
aS'9780691034942'
p3759
aS'9780520074248'
p3760
aS'9780674955448'
p3761
aS'9780520079229'
p3762
aS'9780140109627'
p3763
aS'9780300107708'
p3764
aS'9780520221680'
p3765
aS'9780486250236'
p3766
aS'9780226194868'
p3767
aS'9780300050837'
p3768
aS'9780631232520'
p3769
aS'9780195049831'
p3770
aS'9780804719018'
p3771
aS'9780674008021'
p3772
aS'9780226675244'
p3773
aS'9780415952200'
p3774
asa(dp3775
g2
VHIST1330
p3776
sg4
(lp3777
S'9780393319118'
p3778
aS'9780679730057'
p3779
aS'9780449213940'
p3780
aS'9780812982619'
p3781
aS'9781453722480'
p3782
aS'9781400096275'
p3783
aS'9780679768166'
p3784
asa(dp3785
g2
VHIST1361
p3786
sg4
(lp3787
sa(dp3788
g2
VHIST1455
p3789
sg4
(lp3790
S'9780520246614'
p3791
aS'9780691156248'
p3792
aS'9781781681169'
p3793
asa(dp3794
g2
VHIST1493
p3795
sg4
(lp3796
sa(dp3797
g2
VHIST1496
p3798
sg4
(lp3799
S'9780743243292'
p3800
aS'9780739112427'
p3801
aS'9780230276369'
p3802
aS'9780819569592'
p3803
aS'9781421409993'
p3804
asa(dp3805
g2
VHIST1503
p3806
sg4
(lp3807
S'9780231143509'
p3808
aS'9780813313474'
p3809
aS'9789813068513'
p3810
aS'9780824828004'
p3811
asa(dp3812
g2
VHIST1540
p3813
sg4
(lp3814
S'9780393977202'
p3815
aS'9780816512560'
p3816
aS'9780824818500'
p3817
asa(dp3818
g2
VHIST1630
p3819
sg4
(lp3820
S'9780805083231'
p3821
aS'9780199929238'
p3822
aS'9780292708822'
p3823
aS'9780807847428'
p3824
aS'9780822347361'
p3825
aS'9780822959656'
p3826
aS'9780807856734'
p3827
asa(dp3828
g2
VHIST1701
p3829
sg4
(lp3830
S'9780807054055'
p3831
aS'9780804706018'
p3832
aS'9780691089140'
p3833
aS'9780140390162'
p3834
aS'9780842027489'
p3835
asa(dp3836
g2
VHIST1770
p3837
sg4
(lp3838
sa(dp3839
g2
VHIST1781
p3840
sg4
(lp3841
S'9780226320557'
p3842
aS'9780195392937'
p3843
asa(dp3844
g2
VHIST1783
p3845
sg4
(lp3846
sa(dp3847
g2
VHIST1801
p3848
sg4
(lp3849
S'9780674053021'
p3850
aS'9780195170450'
p3851
aS'9780807855010'
p3852
aS'9780306818363'
p3853
aS'9780374533403'
p3854
aS'9780199929061'
p3855
aS'9780195340846'
p3856
aS'9780060630560'
p3857
asa(dp3858
g2
VHIST1900
p3859
sg4
(lp3860
S'9780805083231'
p3861
aS'9781612054483'
p3862
aS'9780520280212'
p3863
aS'9781935982159'
p3864
aS'9780307347381'
p3865
aS'9780807847428'
p3866
aS'9780812978964'
p3867
asa(dp3868
g2
VHIST1951
p3869
sg4
(lp3870
sa(dp3871
g2
VHIST1970Y
p3872
sg4
(lp3873
S'9780813552729'
p3874
aS'9780521804905'
p3875
aS'9780700618217'
p3876
aS'9780820338279'
p3877
aS'9780618249060'
p3878
aS'9780262514927'
p3879
aS'9780520240957'
p3880
aS'9780700618200'
p3881
asa(dp3882
g2
VHIST1972R
p3883
sg4
(lp3884
S'9780822353126'
p3885
aS'9780195063165'
p3886
aS'9780822347354'
p3887
aS'9780807849767'
p3888
asa(dp3889
g2
VHIST1973J
p3890
sg4
(lp3891
sa(dp3892
g2
VHIST1973P
p3893
sg4
(lp3894
S'9780520221680'
p3895
aS'9780691009032'
p3896
aS'9780812218848'
p3897
aS'9780811200073'
p3898
aS'9781558491779'
p3899
aS'9780674955448'
p3900
aS'9780520078673'
p3901
asa(dp3902
g2
VHIST1973T
p3903
sg4
(lp3904
S'9780199209002'
p3905
aS'9780874514995'
p3906
asa(dp3907
g2
VHIST1976M
p3908
sg4
(lp3909
S'9780930872526'
p3910
aS'9780765603128'
p3911
asa(dp3912
g2
VHIST1976N
p3913
sg4
(lp3914
S'9780199738533'
p3915
aS'9780375719196'
p3916
aS'9780521678520'
p3917
aS'9780801476686'
p3918
aS'9780520211612'
p3919
aS'9780231106511'
p3920
asa(dp3921
g2
VHIST1976R
p3922
sg4
(lp3923
S'9780300187496'
p3924
aS'9780878558377'
p3925
aS'9780916458188'
p3926
asa(dp3927
g2
VHIST1976T
p3928
sg4
(lp3929
S'9780872208438'
p3930
aS'9780872208414'
p3931
aS'9780822354987'
p3932
aS'9781405116763'
p3933
aS'9781577662457'
p3934
aS'9780231104678'
p3935
aS'9780807070734'
p3936
asa(dp3937
g2
VHIST1977Q
p3938
sg4
(lp3939
sa(dp3940
g2
VHIST1978A
p3941
sg4
(lp3942
sa(dp3943
g2
VHIST1978D
p3944
sg4
(lp3945
S'9780520203709'
p3946
aS'9780805092776'
p3947
aS'9780807003091'
p3948
aS'9780813343365'
p3949
aS'9780804788007'
p3950
aS'9780894108570'
p3951
asa(dp3952
g2
VHIST1978F
p3953
sg4
(lp3954
sa(dp3955
g2
VHIST1978G
p3956
sg4
(lp3957
S'9780226110271'
p3958
aS'9780156141505'
p3959
aS'9780393326048'
p3960
aS'9780393958492'
p3961
aS'9780671201562'
p3962
asa(dp3963
g2
VHIST1978H
p3964
sg4
(lp3965
S'9780521528917'
p3966
asa(dp3967
g2
VHIST1978O
p3968
sg4
(lp3969
S'9780871407764'
p3970
aS'9780674030688'
p3971
aS'9781469613864'
p3972
aS'9780871404305'
p3973
aS'9780815628934'
p3974
aS'9780807072820'
p3975
aS'9780814742969'
p3976
aS'9780801484377'
p3977
aS'9780195339444'
p3978
asa(dp3979
g2
VHIST1978U
p3980
sg4
(lp3981
S'9780452011878'
p3982
aS'9780822941620'
p3983
aS'9781604860726'
p3984
aS'9780674050785'
p3985
aS'9780230553552'
p3986
aS'9781904859789'
p3987
aS'9781780260822'
p3988
aS'9780822322382'
p3989
aS'9780896086500'
p3990
aS'9780415876735'
p3991
aS'9780822345398'
p3992
aS'9780393316759'
p3993
aS'9780896086074'
p3994
asa(dp3995
g2
VHIST1978W
p3996
sg4
(lp3997
sa(dp3998
g2
VHIST1979B
p3999
sg4
(lp4000
sa(dp4001
g2
VHIST1979C
p4002
sg4
(lp4003
S'9780812219760'
p4004
aS'9780812218800'
p4005
aS'9780312400873'
p4006
aS'9780719067310'
p4007
aS'9780271058641'
p4008
asa(dp4009
g2
VHIST1979G
p4010
sg4
(lp4011
S'9780195096453'
p4012
aS'9780618773442'
p4013
aS'9780670025664'
p4014
aS'9780809327386'
p4015
aS'9781400032631'
p4016
aS'9780375703966'
p4017
aS'9781598530537'
p4018
aS'9780743289481'
p4019
asa(dp4020
g2
VHIST1992
p4021
sg4
(lp4022
S'9781457621277'
p4023
aS'9780312610418'
p4024
aS'9780192853523'
p4025
aS'9780415304436'
p4026
asa(dp4027
g2
VHIST1994
p4028
sg4
(lp4029
S'9781457621277'
p4030
aS'9780312610418'
p4031
aS'9780192853523'
p4032
aS'9780415304436'
p4033
asa(dp4034
g2
VHIST2950
p4035
sg4
(lp4036
sa(dp4037
g2
VHIST2960
p4038
sg4
(lp4039
sa(dp4040
g2
VHIST2970C
p4041
sg4
(lp4042
S'9780807872154'
p4043
aS'9780807838518'
p4044
aS'9780814743058'
p4045
aS'9780813141824'
p4046
aS'9781574780499'
p4047
aS'9780520282223'
p4048
aS'9780807857021'
p4049
aS'9780674057296'
p4050
aS'9780812220896'
p4051
aS'9780807856161'
p4052
aS'9781556526787'
p4053
aS'9780820328140'
p4054
aS'9780742551091'
p4055
aS'9780807835494'
p4056
aS'9780807849231'
p4057
aS'9780814770115'
p4058
aS'9780691095134'
p4059
aS'9780521531580'
p4060
aS'9780393330533'
p4061
aS'9780143120322'
p4062
aS'9780803262713'
p4063
aS'9780816676484'
p4064
asa(dp4065
g2
VHIST2971L
p4066
sg4
(lp4067
S'9780253006356'
p4068
asa(dp4069
g2
VHIST2981G
p4070
sg4
(lp4071
S'9780231160186'
p4072
aS'9781844675111'
p4073
aS'9780691130019'
p4074
aS'9780522850536'
p4075
aS'9780822316909'
p4076
aS'9780300187496'
p4077
aS'9781107036567'
p4078
aS'9780822337157'
p4079
aS'9780679724698'
p4080
aS'9780198183273'
p4081
aS'9780231160483'
p4082
aS'9780691141664'
p4083
aS'9780822346128'
p4084
asa(dp4085
g2
VHMAN1970K
p4086
sg4
(lp4087
sa(dp4088
g2
VHMAN1970Q
p4089
sg4
(lp4090
S'9780679767879'
p4091
aS'9780199238286'
p4092
aS'9780226738895'
p4093
asa(dp4094
g2
VHMAN1971C
p4095
sg4
(lp4096
sa(dp4097
g2
VHMAN1971D
p4098
sg4
(lp4099
sa(dp4100
g2
VHMAN2970B
p4101
sg4
(lp4102
S'9780374528942'
p4103
aS'9780226025988'
p4104
aS'9781492397922'
p4105
aS'9780472064687'
p4106
aS'9780823227914'
p4107
aS'9780521337045'
p4108
aS'9780816641000'
p4109
aS'9780679753353'
p4110
aS'9780802143006'
p4111
aS'9781583670255'
p4112
aS'9781604863116'
p4113
aS'9780252073267'
p4114
asa(dp4115
g2
VHMAN2970M
p4116
sg4
(lp4117
sa(dp4118
g2
VHNDI0200
p4119
sg4
(lp4120
sa(dp4121
g2
VHNDI0400
p4122
sg4
(lp4123
sa(dp4124
g2
VHNDI1080
p4125
sg4
(lp4126
sa(dp4127
g2
VINTL1442
p4128
sg4
(lp4129
sa(dp4130
g2
VINTL1800V
p4131
sg4
(lp4132
S'9780199361038'
p4133
aS'9780307456298'
p4134
aS'9780374530556'
p4135
aS'9781610392358'
p4136
aS'9780199860142'
p4137
aS'9781608714032'
p4138
aS'9780061120145'
p4139
aS'9780307279446'
p4140
aS'9780470287163'
p4141
aS'9781601270474'
p4142
aS'9780199931767'
p4143
aS'9780674725690'
p4144
asa(dp4145
g2
VINTL1802J
p4146
sg4
(lp4147
S'9780691156163'
p4148
aS'9780691143989'
p4149
aS'9781250008794'
p4150
aS'9780471345367'
p4151
aS'9780273731962'
p4152
aS'9781594205309'
p4153
asa(dp4154
g2
VINTL1802L
p4155
sg4
(lp4156
S'9781107609365'
p4157
aS'9780521712323'
p4158
aS'9780521181105'
p4159
aS'9780804769563'
p4160
asa(dp4161
g2
VINTL1802M
p4162
sg4
(lp4163
S'9780803261204'
p4164
aS'9780143038603'
p4165
aS'9780691102801'
p4166
aS'9780316232913'
p4167
aS'9780745326252'
p4168
aS'9780312429379'
p4169
aS'9780470120156'
p4170
aS'9781937856748'
p4171
aS'9781137278951'
p4172
asa(dp4173
g2
VINTL1802N
p4174
sg4
(lp4175
sa(dp4176
g2
VITAL0110
p4177
sg4
(lp4178
S'9780205990306'
p4179
aS'9780133775938'
p4180
asa(dp4181
g2
VITAL0200
p4182
sg4
(lp4183
sa(dp4184
g2
VITAL0400
p4185
sg4
(lp4186
S'9788806207694'
p4187
asa(dp4188
g2
VITAL0600
p4189
sg4
(lp4190
sa(dp4191
g2
VITAL0981
p4192
sg4
(lp4193
S'9780226500461'
p4194
aS'9780917974571'
p4195
aS'9780226500416'
p4196
aS'9780872207363'
p4197
aS'9780872209442'
p4198
aS'9780374528003'
p4199
aS'9780312149789'
p4200
aS'9780875806181'
p4201
asa(dp4202
g2
VITAL1020
p4203
sg4
(lp4204
S'9780393069303'
p4205
aS'9788806177027'
p4206
asa(dp4207
g2
VITAL1435
p4208
sg4
(lp4209
S'9780934977654'
p4210
aS'9780802097231'
p4211
aS'9780802094841'
p4212
aS'9788842539506'
p4213
aS'9788817120920'
p4214
aS'9788807900358'
p4215
aS'9788806445294'
p4216
aS'9788806062545'
p4217
aS'9788806064525'
p4218
asa(dp4219
g2
VITAL1590
p4220
sg4
(lp4221
sa(dp4222
g2
VITAL1620
p4223
sg4
(lp4224
S'9788804546528'
p4225
aS'9780195087468'
p4226
asa(dp4227
g2
VITAL2550
p4228
sg4
(lp4229
S'9780679724698'
p4230
aS'9780393331646'
p4231
aS'9780415389556'
p4232
aS'9780231118576'
p4233
asa(dp4234
g2
VITAL2820
p4235
sg4
(lp4236
sa(dp4237
g2
VITAL2900
p4238
sg4
(lp4239
S'9780131579064'
p4240
asa(dp4241
g2
VJAPN0100
p4242
sg4
(lp4243
S'BSMZNJMWRIOT'
p4244
aS'BSY2NHNZKYMZ'
p4245
aS'BSZTE4ZJRLMJ'
p4246
asa(dp4247
g2
VJAPN0200
p4248
sg4
(lp4249
S'9784805311165'
p4250
asa(dp4251
g2
VJAPN0400
p4252
sg4
(lp4253
S'9784789013086'
p4254
aS'9784789012829'
p4255
aS'9784789013079'
p4256
asa(dp4257
g2
VJAPN0600
p4258
sg4
(lp4259
sa(dp4260
g2
VJAPN0800
p4261
sg4
(lp4262
S'9784883192571'
p4263
asa(dp4264
g2
VJAPN0910B
p4265
sg4
(lp4266
sa(dp4267
g2
VJUDS0090B
p4268
sg4
(lp4269
S'9783438052223'
p4270
aS'9783438052193'
p4271
aS'9780802094292'
p4272
aS'9781598560282'
p4273
aS'9781565632066'
p4274
asa(dp4275
g2
VJUDS0200
p4276
sg4
(lp4277
sa(dp4278
g2
VJUDS0400
p4279
sg4
(lp4280
sa(dp4281
g2
VJUDS0670
p4282
sg4
(lp4283
S'9780664232429'
p4284
aS'9780631235811'
p4285
aS'9781883053093'
p4286
aS'9780195289602'
p4287
asa(dp4288
g2
VJUDS1610
p4289
sg4
(lp4290
sa(dp4291
g2
VJUDS1630
p4292
sg4
(lp4293
S'9780521605083'
p4294
aS'9780801882654'
p4295
aS'9780809140244'
p4296
asa(dp4297
g2
VJUDS1710
p4298
sg4
(lp4299
S'9780394740676'
p4300
aS'9780691147987'
p4301
aS'9780865274280'
p4302
aS'9780805210477'
p4303
aS'9780199739691'
p4304
asa(dp4305
g2
VJUDS1711
p4306
sg4
(lp4307
sa(dp4308
g2
VJUDS1713
p4309
sg4
(lp4310
sa(dp4311
g2
VJUDS1740
p4312
sg4
(lp4313
S'9780805210514'
p4314
aS'9780691138886'
p4315
aS'9780814726297'
p4316
aS'9780804748261'
p4317
aS'9780691154428'
p4318
aS'9780812221701'
p4319
asa(dp4320
g2
VJUDS1810
p4321
sg4
(lp4322
S'9789653070271'
p4323
asa(dp4324
g2
VJUDS1820
p4325
sg4
(lp4326
S'9780807841600'
p4327
aS'9780810116252'
p4328
aS'9781559703154'
p4329
aS'9780393324259'
p4330
aS'9780684826806'
p4331
aS'9780195077322'
p4332
aS'9780374701246'
p4333
asa(dp4334
g2
VKREA0200
p4335
sg4
(lp4336
S'9780824835156'
p4337
asa(dp4338
g2
VKREA0400
p4339
sg4
(lp4340
S'9780824838133'
p4341
asa(dp4342
g2
VKREA0600
p4343
sg4
(lp4344
sa(dp4345
g2
VLAST1510N
p4346
sg4
(lp4347
S'9781421401102'
p4348
aS'9780521132664'
p4349
asa(dp4350
g2
VLATN0110
p4351
sg4
(lp4352
S'9780300102154'
p4353
aS'9780300101942'
p4354
asa(dp4355
g2
VLATN0200
p4356
sg4
(lp4357
S'9780061997228'
p4358
aS'9780865162891'
p4359
asa(dp4360
g2
VLATN0400
p4361
sg4
(lp4362
S'9781585102143'
p4363
aS'9780862922962'
p4364
aS'9781585100279'
p4365
aS'9780553590128'
p4366
asa(dp4367
g2
VLATN1040B
p4368
sg4
(lp4369
S'9781585102143'
p4370
aS'9781853995002'
p4371
asa(dp4372
g2
VLATN1060F
p4373
sg4
(lp4374
S'9780521556200'
p4375
aS'9780521007931'
p4376
aS'9780906515402'
p4377
asa(dp4378
g2
VLATN1120D
p4379
sg4
(lp4380
sa(dp4381
g2
VLATN1810
p4382
sg4
(lp4383
S'9780521397742'
p4384
aS'9780521422857'
p4385
aS'9780198146674'
p4386
aS'9780198146049'
p4387
aS'9780788505454'
p4388
aS'9780198146247'
p4389
aS'9780521459976'
p4390
aS'9780521458719'
p4391
aS'9780521291071'
p4392
asa(dp4393
g2
VLATN2120D
p4394
sg4
(lp4395
S'9783598715808'
p4396
aS'9780198144595'
p4397
aS'9780199245949'
p4398
asa(dp4399
g2
VLITR0110A
p4400
sg4
(lp4401
S'9781555974770'
p4402
aS'9780679723059'
p4403
aS'9780060976729'
p4404
aS'9781564784667'
p4405
aS'9780812979657'
p4406
aS'9780385492164'
p4407
aS'9780205750344'
p4408
asa(dp4409
g2
VLITR0110B
p4410
sg4
(lp4411
S'9781564785657'
p4412
aS'9780811219181'
p4413
aS'9789995301019'
p4414
aS'9780953150939'
p4415
aS'9780918786456'
p4416
aS'9781552451199'
p4417
aS'9781933254265'
p4418
aS'9781936194063'
p4419
aS'9781934819302'
p4420
aS'9781552452295'
p4421
aS'9780982264584'
p4422
aS'9781936194155'
p4423
aS'9780942996265'
p4424
aS'9781571313096'
p4425
aS'9780984459872'
p4426
aS'9781932511550'
p4427
aS'9781931824385'
p4428
aS'9780312463199'
p4429
aS'9780811215077'
p4430
aS'9781936194087'
p4431
aS'9781848610590'
p4432
aS'9781932195606'
p4433
aS'9781887123389'
p4434
aS'9781896860312'
p4435
aS'9781933517032'
p4436
aS'9780520268852'
p4437
asa(dp4438
g2
VLITR0110D
p4439
sg4
(lp4440
sa(dp4441
g2
VLITR0110E
p4442
sg4
(lp4443
sa(dp4444
g2
VLITR0210A
p4445
sg4
(lp4446
sa(dp4447
g2
VLITR0210B
p4448
sg4
(lp4449
S'9780984331246'
p4450
aS'9781619020221'
p4451
aS'9780811214773'
p4452
aS'9780393333756'
p4453
aS'9781932195606'
p4454
aS'9780060925840'
p4455
aS'9780971318977'
p4456
asa(dp4457
g2
VLITR0210D
p4458
sg4
(lp4459
sa(dp4460
g2
VLITR0210E
p4461
sg4
(lp4462
sa(dp4463
g2
VLITR0710
p4464
sg4
(lp4465
S'9781556592997'
p4466
aS'9780062190642'
p4467
aS'9781555976538'
p4468
aS'9781890650667'
p4469
aS'9781594205361'
p4470
aS'9781566892537'
p4471
aS'9780802170682'
p4472
asa(dp4473
g2
VLITR1010A
p4474
sg4
(lp4475
sa(dp4476
g2
VLITR1010B
p4477
sg4
(lp4478
sa(dp4479
g2
VLITR1010F
p4480
sg4
(lp4481
S'9780982237694'
p4482
aS'9781890650537'
p4483
aS'9780811220668'
p4484
aS'9780231159692'
p4485
aS'9781556594502'
p4486
asa(dp4487
g2
VLITR1010G
p4488
sg4
(lp4489
sa(dp4490
g2
VLITR1110R
p4491
sg4
(lp4492
sa(dp4493
g2
VLITR1150M
p4494
sg4
(lp4495
sa(dp4496
g2
VLITR1150N
p4497
sg4
(lp4498
S'9780803289536'
p4499
aS'9780803289512'
p4500
aS'9780803289529'
p4501
aS'9780802135063'
p4502
asa(dp4503
g2
VLITR1150X
p4504
sg4
(lp4505
sa(dp4506
g2
VLITR1150Y
p4507
sg4
(lp4508
S'9781886224865'
p4509
aS'9781936194162'
p4510
aS'9781555976569'
p4511
aS'9781936747573'
p4512
aS'9780985508579'
p4513
asa(dp4514
g2
VLITR1200
p4515
sg4
(lp4516
S'9781556592997'
p4517
aS'9780062190642'
p4518
aS'9781555976538'
p4519
aS'9781890650667'
p4520
aS'9781594205361'
p4521
aS'9780224093859'
p4522
aS'9781566892537'
p4523
aS'9780307455338'
p4524
aS'9780802170682'
p4525
asa(dp4526
g2
VLITR1220E
p4527
sg4
(lp4528
sa(dp4529
g2
VLITR1230E
p4530
sg4
(lp4531
S'9780822335214'
p4532
aS'9781419704420'
p4533
aS'9780814251577'
p4534
aS'9781250005984'
p4535
aS'9780029315002'
p4536
asa(dp4537
g2
VLITR1230I
p4538
sg4
(lp4539
S'9780819574145'
p4540
aS'9780520243057'
p4541
aS'9781574232172'
p4542
aS'9780679767862'
p4543
aS'9780811218702'
p4544
aS'9781934200643'
p4545
aS'9781934824689'
p4546
aS'9780811214063'
p4547
aS'9781556591747'
p4548
asa(dp4549
g2
VLITR1230J
p4550
sg4
(lp4551
sa(dp4552
g2
VLITR1410A
p4553
sg4
(lp4554
sa(dp4555
g2
VLITR2010A
p4556
sg4
(lp4557
sa(dp4558
g2
VLITR2010B
p4559
sg4
(lp4560
S'9780472065363'
p4561
aS'9781933517575'
p4562
aS'9780811216944'
p4563
aS'9780811212380'
p4564
aS'9780472064809'
p4565
asa(dp4566
g2
VLITR2110G
p4567
sg4
(lp4568
S'9780143123033'
p4569
asa(dp4570
g2
VLITR2110H
p4571
sg4
(lp4572
sa(dp4573
g2
VMATH0060
p4574
sg4
(lp4575
S'9780840068330'
p4576
asa(dp4577
g2
VMATH0090
p4578
sg4
(lp4579
S'9780321628831'
p4580
asa(dp4581
g2
VMATH0100
p4582
sg4
(lp4583
S'9780321628831'
p4584
asa(dp4585
g2
VMATH0180
p4586
sg4
(lp4587
S'9780321643698'
p4588
asa(dp4589
g2
VMATH0200
p4590
sg4
(lp4591
S'9780321643698'
p4592
asa(dp4593
g2
VMATH0420
p4594
sg4
(lp4595
S'9780321816191'
p4596
asa(dp4597
g2
VMATH0520
p4598
sg4
(lp4599
S'9780321385178'
p4600
aS'9780321199911'
p4601
asa(dp4602
g2
VMATH0540
p4603
sg4
(lp4604
S'9780387982588'
p4605
asa(dp4606
g2
VMATH1010
p4607
sg4
(lp4608
S'9780763714970'
p4609
asa(dp4610
g2
VMATH1040
p4611
sg4
(lp4612
sa(dp4613
g2
VMATH1120
p4614
sg4
(lp4615
S'9780470054567'
p4616
asa(dp4617
g2
VMATH1140
p4618
sg4
(lp4619
S'9781461268796'
p4620
asa(dp4621
g2
VMATH1530
p4622
sg4
(lp4623
S'9780471010906'
p4624
asa(dp4625
g2
VMATH1540
p4626
sg4
(lp4627
S'9781846280405'
p4628
asa(dp4629
g2
VMATH1560
p4630
sg4
(lp4631
S'9780387950976'
p4632
asa(dp4633
g2
VMATH1620
p4634
sg4
(lp4635
S'9780321694034'
p4636
aS'9780321693945'
p4637
asa(dp4638
g2
VMATH2060
p4639
sg4
(lp4640
S'9780387902449'
p4641
asa(dp4642
g2
VMATH2110
p4643
sg4
(lp4644
S'9781441999818'
p4645
asa(dp4646
g2
VMATH2220
p4647
sg4
(lp4648
sa(dp4649
g2
VMATH2260
p4650
sg4
(lp4651
sa(dp4652
g2
VMATH2420
p4653
sg4
(lp4654
S'9780521795401'
p4655
asa(dp4656
g2
VMATH2520
p4657
sg4
(lp4658
S'9780387942698'
p4659
asa(dp4660
g2
VMATH2540
p4661
sg4
(lp4662
S'9783642084737'
p4663
asa(dp4664
g2
VMATH2720E
p4665
sg4
(lp4666
S'9780387699035'
p4667
asa(dp4668
g2
VMATH2720I
p4669
sg4
(lp4670
sa(dp4671
g2
VMCM0240
p4672
sg4
(lp4673
sa(dp4674
g2
VMCM0260
p4675
sg4
(lp4676
S'9780073535104'
p4677
asa(dp4678
g2
VMCM0710
p4679
sg4
(lp4680
S'9780231078993'
p4681
aS'9780240516844'
p4682
aS'9781856693349'
p4683
asa(dp4684
g2
VMCM0800J
p4685
sg4
(lp4686
sa(dp4687
g2
VMCM0901L
p4688
sg4
(lp4689
S'9780691016573'
p4690
aS'9780226253039'
p4691
aS'9780674008243'
p4692
asa(dp4693
g2
VMCM1202J
p4694
sg4
(lp4695
S'9780691120652'
p4696
aS'9780231114295'
p4697
aS'9780226401195'
p4698
aS'9781844671601'
p4699
aS'9780374528997'
p4700
aS'9781594487293'
p4701
aS'9780812994346'
p4702
aS'9780393346602'
p4703
aS'9780312421274'
p4704
asa(dp4705
g2
VMCM1202S
p4706
sg4
(lp4707
sa(dp4708
g2
VMCM1202U
p4709
sg4
(lp4710
S'9780801485930'
p4711
aS'9780679724698'
p4712
aS'9780860916420'
p4713
asa(dp4714
g2
VMCM1500O
p4715
sg4
(lp4716
S'9780520242272'
p4717
aS'9780253181411'
p4718
aS'9780156309202'
p4719
aS'9780691037042'
p4720
aS'9780226521305'
p4721
asa(dp4722
g2
VMCM1503E
p4723
sg4
(lp4724
S'9780745646312'
p4725
aS'9780374521608'
p4726
aS'9780631223061'
p4727
aS'9780486437392'
p4728
aS'9780674046580'
p4729
aS'9780804751162'
p4730
asa(dp4731
g2
VMCM1700U
p4732
sg4
(lp4733
sa(dp4734
g2
VMCM1700V
p4735
sg4
(lp4736
S'9780816665174'
p4737
asa(dp4738
g2
VMCM2100J
p4739
sg4
(lp4740
sa(dp4741
g2
VMCM2110J
p4742
sg4
(lp4743
S'9780226025988'
p4744
aS'9781844675449'
p4745
aS'9780143039884'
p4746
aS'9780156701532'
p4747
aS'9780805211061'
p4748
asa(dp4749
g2
VMCM2310H
p4750
sg4
(lp4751
S'9780814757345'
p4752
asa(dp4753
g2
VMES1996A
p4754
sg4
(lp4755
S'9780385340434'
p4756
aS'9780802170262'
p4757
aS'9780747525363'
p4758
aS'9780385340458'
p4759
aS'9781408826003'
p4760
aS'9780701175115'
p4761
aS'9780435905606'
p4762
aS'9780385720113'
p4763
aS'9780802170149'
p4764
asa(dp4765
g2
VMES1997A
p4766
sg4
(lp4767
S'9780813344676'
p4768
aS'9780195128369'
p4769
aS'9780815627067'
p4770
aS'9781577660071'
p4771
asa(dp4772
g2
VMES1998
p4773
sg4
(lp4774
sa(dp4775
g2
VMES1999A
p4776
sg4
(lp4777
sa(dp4778
g2
VMGRK0200
p4779
sg4
(lp4780
sa(dp4781
g2
VMGRK0400
p4782
sg4
(lp4783
sa(dp4784
g2
VMGRK0600
p4785
sg4
(lp4786
sa(dp4787
g2
VMUSC0043
p4788
sg4
(lp4789
sa(dp4790
g2
VMUSC0052
p4791
sg4
(lp4792
S'9780825672682'
p4793
asa(dp4794
g2
VMUSC0075
p4795
sg4
(lp4796
S'9780674018532'
p4797
aS'9780226215174'
p4798
aS'9780195074796'
p4799
aS'9780688184742'
p4800
aS'9780195399707'
p4801
asa(dp4802
g2
VMUSC0210E
p4803
sg4
(lp4804
sa(dp4805
g2
VMUSC0221
p4806
sg4
(lp4807
sa(dp4808
g2
VMUSC0400
p4809
sg4
(lp4810
sa(dp4811
g2
VMUSC0560
p4812
sg4
(lp4813
S'9780495916079'
p4814
asa(dp4815
g2
VMUSC0601
p4816
sg4
(lp4817
sa(dp4818
g2
VMUSC0611
p4819
sg4
(lp4820
sa(dp4821
g2
VMUSC0621
p4822
sg4
(lp4823
sa(dp4824
g2
VMUSC0631
p4825
sg4
(lp4826
sa(dp4827
g2
VMUSC0641
p4828
sg4
(lp4829
sa(dp4830
g2
VMUSC0651
p4831
sg4
(lp4832
sa(dp4833
g2
VMUSC0661
p4834
sg4
(lp4835
sa(dp4836
g2
VMUSC0671
p4837
sg4
(lp4838
sa(dp4839
g2
VMUSC0681
p4840
sg4
(lp4841
sa(dp4842
g2
VMUSC0920
p4843
sg4
(lp4844
S'9780195097627'
p4845
aS'9780199768264'
p4846
aS'9780199768257'
p4847
asa(dp4848
g2
VMUSC1011
p4849
sg4
(lp4850
sa(dp4851
g2
VMUSC1040
p4852
sg4
(lp4853
S'9780415892155'
p4854
aS'9780199732470'
p4855
aS'9780199732487'
p4856
asa(dp4857
g2
VMUSC1110
p4858
sg4
(lp4859
sa(dp4860
g2
VMUSC1120
p4861
sg4
(lp4862
sa(dp4863
g2
VMUSC1200
p4864
sg4
(lp4865
sa(dp4866
g2
VMUSC1240B
p4867
sg4
(lp4868
sa(dp4869
g2
VMUSC1500A
p4870
sg4
(lp4871
sa(dp4872
g2
VMUSC1690C
p4873
sg4
(lp4874
sa(dp4875
g2
VMUSC1920
p4876
sg4
(lp4877
S'9781446209264'
p4878
asa(dp4879
g2
VMUSC1930
p4880
sg4
(lp4881
sa(dp4882
g2
VMUSC1961
p4883
sg4
(lp4884
sa(dp4885
g2
VMUSC2080E
p4886
sg4
(lp4887
sa(dp4888
g2
VMUSC2090B
p4889
sg4
(lp4890
sa(dp4891
g2
VMUSC2220
p4892
sg4
(lp4893
sa(dp4894
g2
VMUSC2280
p4895
sg4
(lp4896
sa(dp4897
g2
VNEUR0650
p4898
sg4
(lp4899
S'9789004243774'
p4900
aS'9780120885213'
p4901
asa(dp4902
g2
VNEUR0700
p4903
sg4
(lp4904
S'9780195146646'
p4905
aS'9780199739295'
p4906
asa(dp4907
g2
VNEUR1020
p4908
sg4
(lp4909
sa(dp4910
g2
VNEUR1520
p4911
sg4
(lp4912
sa(dp4913
g2
VNEUR1540
p4914
sg4
(lp4915
S'9781605352305'
p4916
asa(dp4917
g2
VNEUR1600
p4918
sg4
(lp4919
sa(dp4920
g2
VNEUR1680
p4921
sg4
(lp4922
sa(dp4923
g2
VNEUR1740
p4924
sg4
(lp4925
sa(dp4926
g2
VNEUR1940B
p4927
sg4
(lp4928
sa(dp4929
g2
VNEUR1940E
p4930
sg4
(lp4931
sa(dp4932
g2
VNEUR1940G
p4933
sg4
(lp4934
sa(dp4935
g2
VNEUR2020
p4936
sg4
(lp4937
sa(dp4938
g2
VNEUR2040
p4939
sg4
(lp4940
sa(dp4941
g2
VNEUR2060
p4942
sg4
(lp4943
sa(dp4944
g2
VNEUR2120
p4945
sg4
(lp4946
sa(dp4947
g2
VNEUR2930E
p4948
sg4
(lp4949
sa(dp4950
g2
VPHIL0010
p4951
sg4
(lp4952
sa(dp4953
g2
VPHIL0060
p4954
sg4
(lp4955
sa(dp4956
g2
VPHIL0100
p4957
sg4
(lp4958
S'9780136246022'
p4959
asa(dp4960
g2
VPHIL0190
p4961
sg4
(lp4962
sa(dp4963
g2
VPHIL0250
p4964
sg4
(lp4965
S'9780140449495'
p4966
aS'9780415253994'
p4967
aS'9780521626958'
p4968
aS'9780679733737'
p4969
aS'9780872202412'
p4970
aS'9780674454491'
p4971
aS'9780872205871'
p4972
aS'9781107604711'
p4973
aS'9780674268586'
p4974
aS'9780140441185'
p4975
aS'9781107401068'
p4976
asa(dp4977
g2
VPHIL0300A
p4978
sg4
(lp4979
S'9780486404455'
p4980
aS'9781405159289'
p4981
asa(dp4982
g2
VPHIL0360
p4983
sg4
(lp4984
S'9780198245360'
p4985
aS'9780312209230'
p4986
aS'9780631150466'
p4987
aS'9780872201309'
p4988
aS'9780415100915'
p4989
aS'9780199296620'
p4990
aS'9780521358125'
p4991
aS'9780023078217'
p4992
aS'9780199555178'
p4993
asa(dp4994
g2
VPHIL0880
p4995
sg4
(lp4996
S'BSOTLKOGNIMW'
p4997
aS'BSNWZIY2NIYT'
p4998
aS'BSMGVLOWI0YW'
p4999
asa(dp5000
g2
VPHIL0990T
p5001
sg4
(lp5002
S'9780521720793'
p5003
aS'9780415252850'
p5004
aS'9780691121277'
p5005
asa(dp5006
g2
VPHIL1100C
p5007
sg4
(lp5008
S'9780934893770'
p5009
aS'9780872208711'
p5010
asa(dp5011
g2
VPHIL1260
p5012
sg4
(lp5013
S'9780872203495'
p5014
asa(dp5015
g2
VPHIL1520
p5016
sg4
(lp5017
S'9780195314595'
p5018
aS'9780521125215'
p5019
asa(dp5020
g2
VPHIL1590
p5021
sg4
(lp5022
sa(dp5023
g2
VPHIL1600
p5024
sg4
(lp5025
S'9780195155129'
p5026
asa(dp5027
g2
VPHIL1650
p5028
sg4
(lp5029
S'9780199247998'
p5030
aS'9780486454221'
p5031
aS'9780521397728'
p5032
aS'9780872201668'
p5033
aS'9780198750734'
p5034
aS'9780872204645'
p5035
asa(dp5036
g2
VPHIL1810C
p5037
sg4
(lp5038
S'9780199608577'
p5039
asa(dp5040
g2
VPHIL1880
p5041
sg4
(lp5042
S'9780521701464'
p5043
asa(dp5044
g2
VPHIL2010A
p5045
sg4
(lp5046
sa(dp5047
g2
VPHIL2040J
p5048
sg4
(lp5049
S'9780262540568'
p5050
aS'9780061575594'
p5051
aS'9780253204783'
p5052
aS'9781438426747'
p5053
asa(dp5054
g2
VPHIL2060B
p5055
sg4
(lp5056
sa(dp5057
g2
VPHIL2100J
p5058
sg4
(lp5059
sa(dp5060
g2
VPHIL2160L
p5061
sg4
(lp5062
S'9780345333759'
p5063
aS'BSOTYXMMI2NT'
p5064
aS'9780199892976'
p5065
asa(dp5066
g2
VPHIL2200
p5067
sg4
(lp5068
sa(dp5069
g2
VPHIL2800
p5070
sg4
(lp5071
sa(dp5072
g2
VPHP0030
p5073
sg4
(lp5074
S'9781594483295'
p5075
aS'9780679724674'
p5076
aS'9780807043110'
p5077
aS'9780809097135'
p5078
aS'9780415935043'
p5079
asa(dp5080
g2
VPHP0310
p5081
sg4
(lp5082
S'9781449626501'
p5083
asa(dp5084
g2
VPHP1100
p5085
sg4
(lp5086
S'9780143118213'
p5087
aS'9780195371505'
p5088
asa(dp5089
g2
VPHP1400
p5090
sg4
(lp5091
sa(dp5092
g2
VPHP1500
p5093
sg4
(lp5094
S'9781934115244'
p5095
asa(dp5096
g2
VPHP1520
p5097
sg4
(lp5098
S'9780307718976'
p5099
aS'9780385337380'
p5100
aS'9780230341876'
p5101
aS'9780446677578'
p5102
aS'9780807021996'
p5103
aS'9780307718969'
p5104
aS'9780195331011'
p5105
aS'9780061344763'
p5106
aS'9780385315548'
p5107
aS'9780312374631'
p5108
aS'9780452269576'
p5109
aS'9780897335249'
p5110
aS'9780312962654'
p5111
aS'9780307263537'
p5112
asa(dp5113
g2
VPHP1530
p5114
sg4
(lp5115
S'9780763761318'
p5116
asa(dp5117
g2
VPHP1600
p5118
sg4
(lp5119
S'9781598841954'
p5120
aS'9780195312911'
p5121
asa(dp5122
g2
VPHP1680K
p5123
sg4
(lp5124
sa(dp5125
g2
VPHP1680T
p5126
sg4
(lp5127
sa(dp5128
g2
VPHP1800
p5129
sg4
(lp5130
sa(dp5131
g2
VPHP1920
p5132
sg4
(lp5133
sa(dp5134
g2
VPHP1964
p5135
sg4
(lp5136
S'9780763736187'
p5137
asa(dp5138
g2
VPHP2040
p5139
sg4
(lp5140
S'9780470465462'
p5141
aS'9780803945838'
p5142
asa(dp5143
g2
VPHP2060
p5144
sg4
(lp5145
S'9780787976347'
p5146
aS'9780761914983'
p5147
aS'9780441478125'
p5148
asa(dp5149
g2
VPHP2070
p5150
sg4
(lp5151
sa(dp5152
g2
VPHP2090
p5153
sg4
(lp5154
sa(dp5155
g2
VPHP2130
p5156
sg4
(lp5157
sa(dp5158
g2
VPHP2180
p5159
sg4
(lp5160
sa(dp5161
g2
VPHP2200
p5162
sg4
(lp5163
sa(dp5164
g2
VPHP2220E
p5165
sg4
(lp5166
sa(dp5167
g2
VPHP2230
p5168
sg4
(lp5169
S'9780340764237'
p5170
asa(dp5171
g2
VPHP2260
p5172
sg4
(lp5173
sa(dp5174
g2
VPHP2330
p5175
sg4
(lp5176
S'9780123742353'
p5177
asa(dp5178
g2
VPHP2350
p5179
sg4
(lp5180
sa(dp5181
g2
VPHP2360
p5182
sg4
(lp5183
S'9780470528518'
p5184
asa(dp5185
g2
VPHP2380
p5186
sg4
(lp5187
sa(dp5188
g2
VPHP2410E
p5189
sg4
(lp5190
sa(dp5191
g2
VPHP2415
p5192
sg4
(lp5193
sa(dp5194
g2
VPHP2430
p5195
sg4
(lp5196
sa(dp5197
g2
VPHP2480
p5198
sg4
(lp5199
S'9780691120355'
p5200
asa(dp5201
g2
VPHP2490
p5202
sg4
(lp5203
sa(dp5204
g2
VPHP2508
p5205
sg4
(lp5206
sa(dp5207
g2
VPHP2511
p5208
sg4
(lp5209
sa(dp5210
g2
VPHP2540
p5211
sg4
(lp5212
sa(dp5213
g2
VPHP2580
p5214
sg4
(lp5215
S'9781461448174'
p5216
asa(dp5217
g2
VPHP2602
p5218
sg4
(lp5219
sa(dp5220
g2
VPHP2604
p5221
sg4
(lp5222
sa(dp5223
g2
VPHP2620
p5224
sg4
(lp5225
sa(dp5226
g2
VPHP2690F
p5227
sg4
(lp5228
sa(dp5229
g2
VPHP2950
p5230
sg4
(lp5231
sa(dp5232
g2
VPHYS0040
p5233
sg4
(lp5234
S'9781429289825'
p5235
asa(dp5236
g2
VPHYS0060
p5237
sg4
(lp5238
S'9780470547908'
p5239
asa(dp5240
g2
VPHYS0100
p5241
sg4
(lp5242
S'9780874515923'
p5243
asa(dp5244
g2
VPHYS0112
p5245
sg4
(lp5246
S'9780691158075'
p5247
aS'9781891389559'
p5248
asa(dp5249
g2
VPHYS0114
p5250
sg4
(lp5251
sa(dp5252
g2
VPHYS0160
p5253
sg4
(lp5254
S'9780465025015'
p5255
aS'9780521147163'
p5256
asa(dp5257
g2
VPHYS0220
p5258
sg4
(lp5259
S'9781107683150'
p5260
aS'9781464116100'
p5261
aS'9781429240154'
p5262
asa(dp5263
g2
VPHYS0500
p5264
sg4
(lp5265
S'9780534408961'
p5266
asa(dp5267
g2
VPHYS0560
p5268
sg4
(lp5269
S'9781429250788'
p5270
asa(dp5271
g2
VPHYS1170
p5272
sg4
(lp5273
S'9780691131160'
p5274
aS'9789812387448'
p5275
aS'9783527406012'
p5276
asa(dp5277
g2
VPHYS1250
p5278
sg4
(lp5279
S'9780471987987'
p5280
asa(dp5281
g2
VPHYS1420
p5282
sg4
(lp5283
S'9780131118928'
p5284
aS'9780306447907'
p5285
asa(dp5286
g2
VPHYS1560
p5287
sg4
(lp5288
S'9780521878586'
p5289
aS'9780124898516'
p5290
asa(dp5291
g2
VPHYS1600
p5292
sg4
(lp5293
S'9780131469907'
p5294
asa(dp5295
g2
VPHYS2040
p5296
sg4
(lp5297
S'9780471309321'
p5298
asa(dp5299
g2
VPHYS2060
p5300
sg4
(lp5301
S'9781107028722'
p5302
aS'9780805382914'
p5303
asa(dp5304
g2
VPHYS2100
p5305
sg4
(lp5306
S'9780198596868'
p5307
aS'9780805387322'
p5308
asa(dp5309
g2
VPHYS2140
p5310
sg4
(lp5311
S'9780123821881'
p5312
asa(dp5313
g2
VPHYS2300
p5314
sg4
(lp5315
S'9780521478144'
p5316
aS'9780521469463'
p5317
asa(dp5318
g2
VPLSH0150
p5319
sg4
(lp5320
sa(dp5321
g2
VPLSH0200
p5322
sg4
(lp5323
sa(dp5324
g2
VPOBS0110
p5325
sg4
(lp5326
S'9780205982882'
p5327
aS'9780205945320'
p5328
asa(dp5329
g2
VPOBS0200
p5330
sg4
(lp5331
S'9780205982882'
p5332
aS'9780205945320'
p5333
asa(dp5334
g2
VPOBS0400
p5335
sg4
(lp5336
S'9781585103447'
p5337
aS'9781585103430'
p5338
aS'9781585107131'
p5339
asa(dp5340
g2
VPOBS0620
p5341
sg4
(lp5342
S'9789727953219'
p5343
aS'9789722115247'
p5344
aS'9789722013741'
p5345
aS'9789720726278'
p5346
asa(dp5347
g2
VPOBS1090
p5348
sg4
(lp5349
sa(dp5350
g2
VPOBS1600P
p5351
sg4
(lp5352
sa(dp5353
g2
VPOBS1600S
p5354
sg4
(lp5355
sa(dp5356
g2
VPOBS1720
p5357
sg4
(lp5358
S'9780325012032'
p5359
asa(dp5360
g2
VPOBS1740
p5361
sg4
(lp5362
S'9780415267083'
p5363
aS'9780743235273'
p5364
aS'9780930452490'
p5365
aS'9780867095401'
p5366
asa(dp5367
g2
VPOBS1750
p5368
sg4
(lp5369
sa(dp5370
g2
VPOBS1800F
p5371
sg4
(lp5372
sa(dp5373
g2
VPOBS2020A
p5374
sg4
(lp5375
S'9780521541220'
p5376
asa(dp5377
g2
VPOBS2020A-2
p5378
sg4
(lp5379
S'9780521541220'
p5380
asa(dp5381
g2
VPOBS2020E
p5382
sg4
(lp5383
sa(dp5384
g2
VPOBS2120A
p5385
sg4
(lp5386
sa(dp5387
g2
VPOBS2500G
p5388
sg4
(lp5389
S'9788508131914'
p5390
aS'9788508145973'
p5391
aS'9788508062027'
p5392
aS'9788520910900'
p5393
aS'9788508040773'
p5394
asa(dp5395
g2
VPOBS2600B
p5396
sg4
(lp5397
S'9789725648186'
p5398
aS'9789722322720'
p5399
aS'9789722036757'
p5400
aS'9789722102865'
p5401
aS'9789722045131'
p5402
aS'9789722102773'
p5403
aS'9789722100267'
p5404
aS'9789722023436'
p5405
asa(dp5406
g2
VPOBS2600R
p5407
sg4
(lp5408
S'9788520930700'
p5409
aS'9788520917206'
p5410
aS'9788520918906'
p5411
aS'9788520917015'
p5412
aS'9788520916193'
p5413
aS'9788520918562'
p5414
aS'9788520916209'
p5415
aS'9788520917244'
p5416
aS'9788520917220'
p5417
aS'9788520931455'
p5418
aS'9788520931448'
p5419
asa(dp5420
g2
VPOLS0010
p5421
sg4
(lp5422
S'9781133612049'
p5423
aS'9781285417813'
p5424
aS'9781133602231'
p5425
asa(dp5426
g2
VPOLS0200
p5427
sg4
(lp5428
S'9780521709156'
p5429
aS'9780691037387'
p5430
aS'9780300015652'
p5431
aS'9780813384764'
p5432
aS'9780312243357'
p5433
aS'9780393914320'
p5434
aS'9780393912791'
p5435
asa(dp5436
g2
VPOLS0220
p5437
sg4
(lp5438
S'9780452261679'
p5439
aS'9780385265560'
p5440
aS'9780300074659'
p5441
aS'9780881332186'
p5442
aS'9780312626686'
p5443
aS'9780300105179'
p5444
aS'9780195383331'
p5445
aS'9780679744948'
p5446
aS'9780312084448'
p5447
asa(dp5448
g2
VPOLS1045
p5449
sg4
(lp5450
S'9780844772646'
p5451
aS'9780872207110'
p5452
aS'9780300095241'
p5453
aS'9780226805368'
p5454
asa(dp5455
g2
VPOLS1050
p5456
sg4
(lp5457
sa(dp5458
g2
VPOLS1260
p5459
sg4
(lp5460
S'9780226799742'
p5461
aS'9781593853662'
p5462
asa(dp5463
g2
VPOLS1280
p5464
sg4
(lp5465
S'9780691160795'
p5466
aS'9780226518824'
p5467
aS'9780670084289'
p5468
aS'9780300100136'
p5469
aS'9780226731377'
p5470
aS'9780060958589'
p5471
aS'9780312426026'
p5472
aS'9780521646253'
p5473
aS'9780801897245'
p5474
aS'9781405195096'
p5475
aS'9780231122375'
p5476
aS'9780521805308'
p5477
asa(dp5478
g2
VPOLS1285
p5479
sg4
(lp5480
S'9780195387735'
p5481
asa(dp5482
g2
VPOLS1290
p5483
sg4
(lp5484
S'9780521678520'
p5485
aS'9780393934519'
p5486
aS'9780815704058'
p5487
aS'9780393924923'
p5488
asa(dp5489
g2
VPOLS1315
p5490
sg4
(lp5491
S'9780195180831'
p5492
aS'9780226555539'
p5493
aS'9780195182477'
p5494
aS'9780226845302'
p5495
asa(dp5496
g2
VPOLS1390
p5497
sg4
(lp5498
S'9780199681693'
p5499
aS'9780813345383'
p5500
asa(dp5501
g2
VPOLS1485
p5502
sg4
(lp5503
sa(dp5504
g2
VPOLS1560
p5505
sg4
(lp5506
S'9780547218236'
p5507
aS'9780073534664'
p5508
aS'9780521709248'
p5509
aS'9781439025017'
p5510
asa(dp5511
g2
VPOLS1780
p5512
sg4
(lp5513
S'9780300149500'
p5514
aS'9780345427489'
p5515
aS'9781590202104'
p5516
asa(dp5517
g2
VPOLS1820J
p5518
sg4
(lp5519
sa(dp5520
g2
VPOLS1821G
p5521
sg4
(lp5522
S'9780199975549'
p5523
aS'9780691156880'
p5524
aS'9780674537514'
p5525
asa(dp5526
g2
VPOLS1821J
p5527
sg4
(lp5528
sa(dp5529
g2
VPOLS1822H
p5530
sg4
(lp5531
S'9780521659123'
p5532
asa(dp5533
g2
VPOLS1822U
p5534
sg4
(lp5535
S'9780307456298'
p5536
aS'9780801478376'
p5537
aS'9781934137543'
p5538
aS'9780801477706'
p5539
aS'9780393919363'
p5540
aS'9780521712323'
p5541
aS'9780801478796'
p5542
asa(dp5543
g2
VPOLS1822X
p5544
sg4
(lp5545
sa(dp5546
g2
VPOLS1823F
p5547
sg4
(lp5548
sa(dp5549
g2
VPOLS1823G
p5550
sg4
(lp5551
S'9780307387097'
p5552
asa(dp5553
g2
VPOLS1823I
p5554
sg4
(lp5555
S'9780226662930'
p5556
aS'9781452226781'
p5557
aS'9780226901268'
p5558
aS'9780205032464'
p5559
asa(dp5560
g2
VPOLS1823J
p5561
sg4
(lp5562
S'9780801473692'
p5563
asa(dp5564
g2
VPOLS1823K
p5565
sg4
(lp5566
S'9780198290919'
p5567
aS'9780743284554'
p5568
aS'9780521369749'
p5569
aS'9780195369878'
p5570
aS'9780521645362'
p5571
aS'9781565845923'
p5572
asa(dp5573
g2
VPOLS1823Q
p5574
sg4
(lp5575
S'9780691120195'
p5576
aS'9780674005426'
p5577
aS'9780300110708'
p5578
aS'9780804754729'
p5579
aS'9780521290043'
p5580
asa(dp5581
g2
VPOLS1920
p5582
sg4
(lp5583
sa(dp5584
g2
VPOLS2051
p5585
sg4
(lp5586
sa(dp5587
g2
VPOLS2140
p5588
sg4
(lp5589
sa(dp5590
g2
VPOLS2170
p5591
sg4
(lp5592
sa(dp5593
g2
VPOLS2220
p5594
sg4
(lp5595
S'9780300103922'
p5596
aS'9780700615148'
p5597
aS'9780691088976'
p5598
aS'9780691120140'
p5599
aS'9780807840337'
p5600
aS'9780700604166'
p5601
aS'9780226662930'
p5602
aS'9780195090932'
p5603
asa(dp5604
g2
VPOLS2260
p5605
sg4
(lp5606
S'9780520271906'
p5607
aS'9780521898102'
p5608
aS'9780521692809'
p5609
aS'9780199837083'
p5610
aS'9780674060630'
p5611
aS'9780804754934'
p5612
aS'9780674725867'
p5613
aS'9780300116205'
p5614
aS'9781107014862'
p5615
aS'9780815704058'
p5616
aS'9780307719225'
p5617
aS'9780674050204'
p5618
aS'9780691037387'
p5619
aS'9780521155762'
p5620
aS'9781107612549'
p5621
asa(dp5622
g2
VPOLS2320
p5623
sg4
(lp5624
S'9780198290919'
p5625
aS'9781844670864'
p5626
aS'9780801475009'
p5627
aS'9780691037790'
p5628
aS'9780521670043'
p5629
aS'9780871544209'
p5630
aS'9780521541794'
p5631
aS'9780300024944'
p5632
aS'9780300100136'
p5633
aS'9780520227064'
p5634
aS'9780691048253'
p5635
aS'9780226467900'
p5636
asa(dp5637
g2
VPOLS2360
p5638
sg4
(lp5639
S'9780465069347'
p5640
aS'9780312694463'
p5641
aS'9780911589030'
p5642
aS'9780226921846'
p5643
aS'9780385092104'
p5644
aS'9780226500447'
p5645
asa(dp5646
g2
VPOLS2380
p5647
sg4
(lp5648
sa(dp5649
g2
VPOLS2580
p5650
sg4
(lp5651
S'9780840064639'
p5652
aS'9781111531041'
p5653
asa(dp5654
g2
VPOLS2971
p5655
sg4
(lp5656
sa(dp5657
g2
VPPAI0100
p5658
sg4
(lp5659
S'9780393912722'
p5660
aS'9781608718429'
p5661
aS'9781452202747'
p5662
asa(dp5663
g2
VPPAI1200
p5664
sg4
(lp5665
S'9781594204111'
p5666
aS'9780521777445'
p5667
aS'9780521376068'
p5668
aS'BSYMM0ZDUXYM'
p5669
aS'9780143115267'
p5670
aS'9781608718429'
p5671
aS'9780374533557'
p5672
aS'9780691120355'
p5673
asa(dp5674
g2
VPPAI1700F
p5675
sg4
(lp5676
S'9781429278454'
p5677
asa(dp5678
g2
VPPAI1700J
p5679
sg4
(lp5680
sa(dp5681
g2
VPPAI1700K
p5682
sg4
(lp5683
S'9780199769124'
p5684
aS'9781586489342'
p5685
aS'9780071770521'
p5686
aS'9780312430009'
p5687
aS'9780143118213'
p5688
asa(dp5689
g2
VPPAI1701H
p5690
sg4
(lp5691
S'9780253001917'
p5692
aS'9780521717687'
p5693
aS'9780300137620'
p5694
aS'9780801857126'
p5695
asa(dp5696
g2
VPPAI1701J
p5697
sg4
(lp5698
S'9780226089386'
p5699
aS'9780691141039'
p5700
aS'9780312430009'
p5701
aS'9780691138978'
p5702
asa(dp5703
g2
VPPAI1701K
p5704
sg4
(lp5705
S'9780801899065'
p5706
aS'9780393307832'
p5707
aS'9781421402673'
p5708
asa(dp5709
g2
VPPAI1701O
p5710
sg4
(lp5711
S'9780691131054'
p5712
aS'9780073511474'
p5713
asa(dp5714
g2
VPPAI1701P
p5715
sg4
(lp5716
S'9780131889699'
p5717
aS'9780813343587'
p5718
asa(dp5719
g2
VPPAI1701Q
p5720
sg4
(lp5721
sa(dp5722
g2
VPPAI1701Y
p5723
sg4
(lp5724
sa(dp5725
g2
VPPAI1910
p5726
sg4
(lp5727
sa(dp5728
g2
VPPAI1991
p5729
sg4
(lp5730
sa(dp5731
g2
VPPAI2035
p5732
sg4
(lp5733
S'9781597180733'
p5734
aS'9780691120355'
p5735
aS'9780138009007'
p5736
aS'9781111531041'
p5737
asa(dp5738
g2
VPPAI2040
p5739
sg4
(lp5740
sa(dp5741
g2
VPPAI2150
p5742
sg4
(lp5743
S'9780061241895'
p5744
aS'9781591397144'
p5745
aS'9780060987404'
p5746
aS'9780393059311'
p5747
aS'9781401309299'
p5748
aS'9781931498715'
p5749
aS'9780940069633'
p5750
asa(dp5751
g2
VPPAI2350
p5752
sg4
(lp5753
sa(dp5754
g2
VPPAI2540
p5755
sg4
(lp5756
S'9780132540643'
p5757
asa(dp5758
g2
VPPAI2600
p5759
sg4
(lp5760
sa(dp5761
g2
VPPAI2655
p5762
sg4
(lp5763
sa(dp5764
g2
VPPAI2700
p5765
sg4
(lp5766
sa(dp5767
g2
VPPAI2755
p5768
sg4
(lp5769
sa(dp5770
g2
VPPAI2800
p5771
sg4
(lp5772
sa(dp5773
g2
VPPAI2900
p5774
sg4
(lp5775
sa(dp5776
g2
VPRSN0200
p5777
sg4
(lp5778
sa(dp5779
g2
VPRSN0400
p5780
sg4
(lp5781
sa(dp5782
g2
VPRSN0600
p5783
sg4
(lp5784
sa(dp5785
g2
VPRSN1200
p5786
sg4
(lp5787
sa(dp5788
g2
VRELS0056
p5789
sg4
(lp5790
sa(dp5791
g2
VRELS0080
p5792
sg4
(lp5793
S'9780674011250'
p5794
aS'9780674012875'
p5795
aS'9780226457390'
p5796
aS'9780520246980'
p5797
aS'9780804738200'
p5798
aS'9780520226821'
p5799
aS'9780814740491'
p5800
aS'9780674064034'
p5801
aS'9780195124873'
p5802
asa(dp5803
g2
VRELS0090H
p5804
sg4
(lp5805
S'9780061228407'
p5806
aS'9781595553676'
p5807
aS'9780743291484'
p5808
aS'9781400069224'
p5809
aS'9780195308167'
p5810
asa(dp5811
g2
VRELS0100
p5812
sg4
(lp5813
S'9780192892232'
p5814
aS'9780394716961'
p5815
aS'9781590306703'
p5816
asa(dp5817
g2
VRELS0260
p5818
sg4
(lp5819
S'9780807068113'
p5820
aS'9781933392813'
p5821
aS'9780061233326'
p5822
aS'9780865474376'
p5823
aS'9780143104919'
p5824
asa(dp5825
g2
VRELS0410
p5826
sg4
(lp5827
S'9780300098396'
p5828
aS'9780195138030'
p5829
aS'9780809122950'
p5830
aS'9780195154610'
p5831
aS'9780195114454'
p5832
asa(dp5833
g2
VRELS0600
p5834
sg4
(lp5835
S'9780739103395'
p5836
aS'9780691149806'
p5837
aS'9780521614870'
p5838
aS'9781107422254'
p5839
aS'9780231162562'
p5840
aS'9780226010694'
p5841
aS'9780195040821'
p5842
aS'9780061189036'
p5843
aS'9780231119412'
p5844
aS'9781860644092'
p5845
aS'9780674034563'
p5846
aS'9780814756652'
p5847
asa(dp5848
g2
VRELS0750
p5849
sg4
(lp5850
S'9780415129916'
p5851
aS'9780801855078'
p5852
aS'9780801487460'
p5853
aS'9780691101903'
p5854
aS'9780521376112'
p5855
aS'9780226076225'
p5856
asa(dp5857
g2
VRELS0820
p5858
sg4
(lp5859
S'9780807000670'
p5860
aS'9780873485432'
p5861
aS'9781570751820'
p5862
aS'9780520201729'
p5863
aS'9781570751578'
p5864
aS'9780807010297'
p5865
aS'9781605208046'
p5866
asa(dp5867
g2
VRELS0911
p5868
sg4
(lp5869
S'9780415571791'
p5870
aS'9780192839251'
p5871
aS'9780824818708'
p5872
aS'9780814762165'
p5873
asa(dp5874
g2
VRELS1000
p5875
sg4
(lp5876
S'9780691127767'
p5877
aS'9780520267527'
p5878
asa(dp5879
g2
VRELS1130
p5880
sg4
(lp5881
S'9780521678025'
p5882
asa(dp5883
g2
VRELS1380A
p5884
sg4
(lp5885
S'9780226791685'
p5886
aS'9780520276802'
p5887
aS'9780691143590'
p5888
aS'9780226662770'
p5889
aS'9780691162171'
p5890
aS'9780814794524'
p5891
asa(dp5892
g2
VRELS1385
p5893
sg4
(lp5894
S'9781609803698'
p5895
aS'9780801858307'
p5896
aS'9780226142777'
p5897
aS'9780664233358'
p5898
aS'9780415900591'
p5899
aS'9780631162940'
p5900
aS'9781844677375'
p5901
aS'9780816611737'
p5902
aS'9780226505657'
p5903
aS'9780226791425'
p5904
asa(dp5905
g2
VRELS1390
p5906
sg4
(lp5907
S'9781589834033'
p5908
aS'9781580440363'
p5909
aS'9781585101146'
p5910
aS'9780415221559'
p5911
aS'9780824818708'
p5912
aS'9780879072018'
p5913
aS'9780521367080'
p5914
aS'9780226076225'
p5915
asa(dp5916
g2
VRELS1625
p5917
sg4
(lp5918
S'9780415289955'
p5919
aS'9780195289602'
p5920
aS'9789004232105'
p5921
asa(dp5922
g2
VRELS1720
p5923
sg4
(lp5924
S'9780231138192'
p5925
aS'9780674057401'
p5926
aS'9780814773048'
p5927
aS'9780520280472'
p5928
aS'9780822348061'
p5929
asa(dp5930
g2
VRELS2100H
p5931
sg4
(lp5932
sa(dp5933
g2
VRELS2110B
p5934
sg4
(lp5935
S'9781598530100'
p5936
aS'9780486280417'
p5937
aS'9781608992089'
p5938
aS'9780061233326'
p5939
aS'9781582431413'
p5940
aS'9780300186116'
p5941
aS'9781482738292'
p5942
aS'9781883011321'
p5943
aS'9780813517780'
p5944
aS'9780399531972'
p5945
asa(dp5946
g2
VRELS2350A
p5947
sg4
(lp5948
sa(dp5949
g2
VRELS2400G
p5950
sg4
(lp5951
S'9780521005807'
p5952
aS'9780674064140'
p5953
aS'9780715635704'
p5954
aS'9780415491693'
p5955
aS'9780521319171'
p5956
aS'9780521646963'
p5957
aS'9780520236653'
p5958
aS'9781591023784'
p5959
aS'9780878501274'
p5960
aS'9780521541114'
p5961
aS'9780691008561'
p5962
aS'9780691146287'
p5963
asa(dp5964
g2
VRISDAPPAR-2494-01
p5965
sg4
(lp5966
sa(dp5967
g2
VRISDAPPAR-3121-01
p5968
sg4
(lp5969
sa(dp5970
g2
VRISDAPPAR-3123-01
p5971
sg4
(lp5972
sa(dp5973
g2
VRISDAPPAR-3133-01
p5974
sg4
(lp5975
sa(dp5976
g2
VRISDAPPAR-3135-01
p5977
sg4
(lp5978
sa(dp5979
g2
VRISDAPPAR-3141-01
p5980
sg4
(lp5981
sa(dp5982
g2
VRISDARCH-2047-01
p5983
sg4
(lp5984
sa(dp5985
g2
VRISDARCH-2102-01
p5986
sg4
(lp5987
sa(dp5988
g2
VRISDARCH-2142-01
p5989
sg4
(lp5990
sa(dp5991
g2
VRISDARCH-2153-01
p5992
sg4
(lp5993
sa(dp5994
g2
VRISDARCH-2155-01
p5995
sg4
(lp5996
S'9780132859295'
p5997
asa(dp5998
g2
VRISDARCH-2158-01
p5999
sg4
(lp6000
sa(dp6001
g2
VRISDARCH-2191-01
p6002
sg4
(lp6003
sa(dp6004
g2
VRISDARCH-2198-01
p6005
sg4
(lp6006
sa(dp6007
g2
VRISDARCH-21ST
p6008
sg4
(lp6009
sa(dp6010
g2
VRISDARCH-H652-01
p6011
sg4
(lp6012
sa(dp6013
g2
VRISDCER-4105-01
p6014
sg4
(lp6015
sa(dp6016
g2
VRISDCER-4106-01
p6017
sg4
(lp6018
sa(dp6019
g2
VRISDCER-4108-01
p6020
sg4
(lp6021
sa(dp6022
g2
VRISDCER-411G-01
p6023
sg4
(lp6024
sa(dp6025
g2
VRISDCER-4122-01
p6026
sg4
(lp6027
sa(dp6028
g2
VRISDCER-4132-01
p6029
sg4
(lp6030
sa(dp6031
g2
VRISDCER-415G-01
p6032
sg4
(lp6033
sa(dp6034
g2
VRISDCER-4198-01
p6035
sg4
(lp6036
sa(dp6037
g2
VRISDENGL-E255-01
p6038
sg4
(lp6039
S'9780312534820'
p6040
aS'9780671441715'
p6041
aS'9780679752936'
p6042
aS'9780374505929'
p6043
aS'9780679748403'
p6044
asa(dp6045
g2
VRISDENGL-E288-01
p6046
sg4
(lp6047
S'9781559361354'
p6048
aS'9780802130488'
p6049
aS'9780679761785'
p6050
aS'9780684843261'
p6051
aS'9780452260092'
p6052
aS'9780688210847'
p6053
asa(dp6054
g2
VRISDENGL-E326-01
p6055
sg4
(lp6056
S'9780375760259'
p6057
aS'9781416551775'
p6058
aS'9780316069885'
p6059
aS'9781585679485'
p6060
aS'9780761159131'
p6061
aS'9781416569855'
p6062
asa(dp6063
g2
VRISDFAV-5108-01
p6064
sg4
(lp6065
sa(dp6066
g2
VRISDFAV-5110-01
p6067
sg4
(lp6068
sa(dp6069
g2
VRISDFAV-5115-01
p6070
sg4
(lp6071
sa(dp6072
g2
VRISDFAV-5118-01
p6073
sg4
(lp6074
sa(dp6075
g2
VRISDFAV-5121-01
p6076
sg4
(lp6077
sa(dp6078
g2
VRISDFAV-5123-01
p6079
sg4
(lp6080
sa(dp6081
g2
VRISDFAV-5125-01
p6082
sg4
(lp6083
sa(dp6084
g2
VRISDFAV-5130-01
p6085
sg4
(lp6086
sa(dp6087
g2
VRISDFAV-5131-01
p6088
sg4
(lp6089
sa(dp6090
g2
VRISDFAV-5192-01
p6091
sg4
(lp6092
sa(dp6093
g2
VRISDGRAD-046G-01
p6094
sg4
(lp6095
S'9780143037248'
p6096
asa(dp6097
g2
VRISDHAVC-C221-01
p6098
sg4
(lp6099
S'9780393924985'
p6100
aS'9780873282369'
p6101
aS'9780486224794'
p6102
asa(dp6103
g2
VRISDHAVC-C519-01
p6104
sg4
(lp6105
S'9780500203644'
p6106
asa(dp6107
g2
VRISDHAVC-C726-01
p6108
sg4
(lp6109
S'9780500204160'
p6110
aS'9780500203774'
p6111
aS'9780500202814'
p6112
asa(dp6113
g2
VRISDHPSS-S101-01
p6114
sg4
(lp6115
S'9780415029100'
p6116
aS'9781412992565'
p6117
aS'9780465031764'
p6118
aS'9780465051960'
p6119
asa(dp6120
g2
VRISDHPSS-S101-08
p6121
sg4
(lp6122
S'9780143115663'
p6123
aS'9780195384345'
p6124
aS'9781451624465'
p6125
aS'9781439171226'
p6126
aS'9780618918249'
p6127
aS'9781416542742'
p6128
aS'9780802130594'
p6129
asa(dp6130
g2
VRISDHPSS-S101-19
p6131
sg4
(lp6132
S'9780393934366'
p6133
aS'9780393913118'
p6134
asa(dp6135
g2
VRISDHPSS-S101-23
p6136
sg4
(lp6137
S'9781285302850'
p6138
aS'9781133612100'
p6139
asa(dp6140
g2
VRISDHPSS-S101-6
p6141
sg4
(lp6142
S'9780520256514'
p6143
asa(dp6144
g2
VRISDHPSS-S726-01
p6145
sg4
(lp6146
S'9780500204160'
p6147
aS'9780500203774'
p6148
aS'9780500202814'
p6149
asa(dp6150
g2
VRISDHVAC-H102-11
p6151
sg4
(lp6152
S'9780205259472'
p6153
asa(dp6154
g2
VRISDHVAC-H734-01
p6155
sg4
(lp6156
S'9780130851338'
p6157
aS'9780199229840'
p6158
asa(dp6159
g2
VRISDLAEL-LE22-01
p6160
sg4
(lp6161
sa(dp6162
g2
VRISDLAEL-LE38-01/02
p6163
sg4
(lp6164
S'9781581153101'
p6165
aS'9783822850572'
p6166
asa(dp6167
g2
VRISDLAS-C221-01
p6168
sg4
(lp6169
S'9780393924985'
p6170
aS'9780873282369'
p6171
aS'9780486224794'
p6172
asa(dp6173
g2
VRISDLAS-E101
p6174
sg4
(lp6175
S'9780615149752'
p6176
aS'9780521010733'
p6177
aS'9780521293747'
p6178
asa(dp6179
g2
VRISDLAS-E206-01
p6180
sg4
(lp6181
S'9780870135439'
p6182
aS'9780140422535'
p6183
aS'9780199537341'
p6184
aS'9781405832816'
p6185
aS'9781554810192'
p6186
aS'9780520253964'
p6187
asa(dp6188
g2
VRISDLAS-E212-01
p6189
sg4
(lp6190
S'9780393912487'
p6191
aS'9780321415615'
p6192
asa(dp6193
g2
VRISDLAS-E254-01
p6194
sg4
(lp6195
S'9780802144898'
p6196
aS'9781438425405'
p6197
aS'9780312263805'
p6198
aS'9780060935221'
p6199
aS'9780816513611'
p6200
asa(dp6201
g2
VRISDLAS-E267-01
p6202
sg4
(lp6203
S'9780142000700'
p6204
aS'9780140283297'
p6205
aS'9780811201063'
p6206
aS'9780385486804'
p6207
aS'9780316353298'
p6208
asa(dp6209
g2
VRISDLAS-E722-01
p6210
sg4
(lp6211
S'9780199540655'
p6212
aS'9780385497008'
p6213
aS'9780385506786'
p6214
aS'9780385496988'
p6215
aS'9781843910060'
p6216
asa(dp6217
g2
VRISDTEXT-4802-01/2
p6218
sg4
(lp6219
S'9780155015128'
p6220
asa(dp6221
g2
VRUSS0110
p6222
sg4
(lp6223
sa(dp6224
g2
VRUSS0200
p6225
sg4
(lp6226
sa(dp6227
g2
VRUSS0400
p6228
sg4
(lp6229
S'9780893573461'
p6230
aS'9780130282804'
p6231
asa(dp6232
g2
VRUSS0600
p6233
sg4
(lp6234
sa(dp6235
g2
VRUSS1000
p6236
sg4
(lp6237
S'9780679727293'
p6238
aS'9780140185522'
p6239
aS'9781590172544'
p6240
aS'9780380633135'
p6241
aS'9780140449976'
p6242
aS'9780802150592'
p6243
aS'9780253201928'
p6244
aS'9780307388865'
p6245
asa(dp6246
g2
VRUSS1120
p6247
sg4
(lp6248
sa(dp6249
g2
VRUSS1200
p6250
sg4
(lp6251
S'9780156027601'
p6252
aS'9780452285583'
p6253
aS'9780679760801'
p6254
aS'9780802150592'
p6255
aS'9780945774105'
p6256
aS'9780253202192'
p6257
aS'9780812974621'
p6258
aS'9780140283365'
p6259
aS'9781585678204'
p6260
asa(dp6261
g2
VRUSS1340
p6262
sg4
(lp6263
S'9780810111608'
p6264
aS'9780679727255'
p6265
aS'9781590173053'
p6266
aS'9780679734529'
p6267
aS'9780253202192'
p6268
aS'9780801495472'
p6269
aS'9780811213646'
p6270
aS'9780300060997'
p6271
aS'9780810112001'
p6272
aS'9781590170861'
p6273
asa(dp6274
g2
VRUSS1400
p6275
sg4
(lp6276
S'9780807064450'
p6277
aS'9780143113010'
p6278
aS'9780802122292'
p6279
aS'9780199538652'
p6280
aS'9780393311556'
p6281
aS'9781558760196'
p6282
asa(dp6283
g2
VRUSS1860
p6284
sg4
(lp6285
S'9781618113207'
p6286
aS'9780393924657'
p6287
aS'9780880013529'
p6288
aS'9780393925302'
p6289
aS'9780192837332'
p6290
aS'9780199555451'
p6291
aS'9780199553891'
p6292
asa(dp6293
g2
VRUSS2720D
p6294
sg4
(lp6295
sa(dp6296
g2
VSANS0200
p6297
sg4
(lp6298
sa(dp6299
g2
VSANS0400
p6300
sg4
(lp6301
sa(dp6302
g2
VSANS1080
p6303
sg4
(lp6304
sa(dp6305
g2
VSCSO0700B
p6306
sg4
(lp6307
S'9780199793754'
p6308
aS'9781412849760'
p6309
aS'9780199569762'
p6310
aS'9780143114949'
p6311
aS'9780195384345'
p6312
aS'9780691156347'
p6313
aS'9781426205408'
p6314
aS'9780029166765'
p6315
aS'9781451683400'
p6316
asa(dp6317
g2
VSCSO1000
p6318
sg4
(lp6319
S'9780674004122'
p6320
aS'9780691020518'
p6321
aS'9780226458120'
p6322
asa(dp6323
g2
VSCSO1700N
p6324
sg4
(lp6325
sa(dp6326
g2
VSIGN0200
p6327
sg4
(lp6328
S'9781581212105'
p6329
aS'9781932501520'
p6330
aS'9780199777549'
p6331
aS'9781581212150'
p6332
asa(dp6333
g2
VSIGN0400
p6334
sg4
(lp6335
S'9780963401632'
p6336
aS'9780965487122'
p6337
aS'9781581211313'
p6338
aS'9780965487108'
p6339
asa(dp6340
g2
VSLAV1310
p6341
sg4
(lp6342
sa(dp6343
g2
VSLAV1350
p6344
sg4
(lp6345
S'9780198204473'
p6346
aS'9780801449512'
p6347
aS'9780801483042'
p6348
aS'9780812968231'
p6349
asa(dp6350
g2
VSLAV1790
p6351
sg4
(lp6352
S'9781564782731'
p6353
aS'9781585673261'
p6354
aS'9780061148521'
p6355
aS'9780810109940'
p6356
aS'9780805210668'
p6357
aS'9780811216876'
p6358
aS'9780156904582'
p6359
aS'9781585673278'
p6360
aS'9780060093747'
p6361
aS'9780679728566'
p6362
aS'9780393324020'
p6363
aS'9780300181678'
p6364
aS'9780976395072'
p6365
aS'9780143105145'
p6366
aS'9780810115132'
p6367
aS'9781840029468'
p6368
asa(dp6369
g2
VSOC0010
p6370
sg4
(lp6371
S'9780393912708'
p6372
aS'9780374533403'
p6373
asa(dp6374
g2
VSOC0170
p6375
sg4
(lp6376
S'9780143120339'
p6377
aS'9780446364492'
p6378
aS'9780520248199'
p6379
aS'9780393932782'
p6380
aS'9780520271463'
p6381
asa(dp6382
g2
VSOC0300C
p6383
sg4
(lp6384
sa(dp6385
g2
VSOC0300D
p6386
sg4
(lp6387
S'9780202302836'
p6388
aS'9780202306049'
p6389
aS'9780199927463'
p6390
aS'9780345441775'
p6391
aS'9781405162432'
p6392
aS'9781429233446'
p6393
aS'9780826417381'
p6394
aS'9780393325379'
p6395
aS'9780804719445'
p6396
aS'9780385094023'
p6397
asa(dp6398
g2
VSOC0300L
p6399
sg4
(lp6400
S'9780325000961'
p6401
aS'9780307390288'
p6402
asa(dp6403
g2
VSOC1020
p6404
sg4
(lp6405
S'9781412914246'
p6406
aS'9781133049791'
p6407
asa(dp6408
g2
VSOC1100
p6409
sg4
(lp6410
S'9780520274709'
p6411
aS'9780130272959'
p6412
aS'9780393310726'
p6413
asa(dp6414
g2
VSOC1118
p6415
sg4
(lp6416
sa(dp6417
g2
VSOC1260
p6418
sg4
(lp6419
sa(dp6420
g2
VSOC1270
p6421
sg4
(lp6422
S'9780804754088'
p6423
aS'9780691127927'
p6424
aS'9781595586438'
p6425
aS'9780871544629'
p6426
asa(dp6427
g2
VSOC1315
p6428
sg4
(lp6429
S'9780761987666'
p6430
aS'9780804758291'
p6431
aS'9781591844389'
p6432
aS'9780131958937'
p6433
asa(dp6434
g2
VSOC1330
p6435
sg4
(lp6436
sa(dp6437
g2
VSOC1620
p6438
sg4
(lp6439
S'9781107670884'
p6440
aS'9781405196871'
p6441
aS'9780745635545'
p6442
aS'9780745639116'
p6443
asa(dp6444
g2
VSOC1870E
p6445
sg4
(lp6446
S'9780814707166'
p6447
aS'9781568331690'
p6448
aS'9781400034635'
p6449
aS'9780316548182'
p6450
aS'9780811216869'
p6451
aS'9780761829096'
p6452
aS'9780761926962'
p6453
aS'9780805044577'
p6454
aS'9781555535957'
p6455
aS'9780807014073'
p6456
aS'9780691022819'
p6457
aS'9780815628323'
p6458
asa(dp6459
g2
VSOC1870Q
p6460
sg4
(lp6461
S'9780415323451'
p6462
asa(dp6463
g2
VSOC1870S
p6464
sg4
(lp6465
sa(dp6466
g2
VSOC1871D
p6467
sg4
(lp6468
S'9780143036586'
p6469
aS'9780822340270'
p6470
aS'9780801483271'
p6471
aS'9780804760560'
p6472
aS'9780143038825'
p6473
aS'9781107663084'
p6474
aS'9781610390989'
p6475
asa(dp6476
g2
VSOC1871R
p6477
sg4
(lp6478
sa(dp6479
g2
VSOC1871S
p6480
sg4
(lp6481
sa(dp6482
g2
VSOC1871W
p6483
sg4
(lp6484
S'9780471510147'
p6485
asa(dp6486
g2
VSOC1950
p6487
sg4
(lp6488
sa(dp6489
g2
VSOC2020
p6490
sg4
(lp6491
sa(dp6492
g2
VSOC2050
p6493
sg4
(lp6494
S'9780807015070'
p6495
aS'9780674212770'
p6496
aS'9780717803972'
p6497
aS'9780679752554'
p6498
asa(dp6499
g2
VSOC2090
p6500
sg4
(lp6501
S'9780060850524'
p6502
aS'9780812215731'
p6503
aS'9780807014011'
p6504
aS'9781844670598'
p6505
aS'9780385073059'
p6506
asa(dp6507
g2
VSOC2130
p6508
sg4
(lp6509
sa(dp6510
g2
VSOC2210
p6511
sg4
(lp6512
sa(dp6513
g2
VSOC2230
p6514
sg4
(lp6515
S'9781557864512'
p6516
asa(dp6517
g2
VSOC2385
p6518
sg4
(lp6519
sa(dp6520
g2
VSOC2430
p6521
sg4
(lp6522
S'9780520275188'
p6523
asa(dp6524
g2
VSOC2960G
p6525
sg4
(lp6526
sa(dp6527
g2
VSOC2960H
p6528
sg4
(lp6529
sa(dp6530
g2
VSOC2960L
p6531
sg4
(lp6532
sa(dp6533
g2
VSOC2960M
p6534
sg4
(lp6535
sa(dp6536
g2
VTAPS0030
p6537
sg4
(lp6538
S'9780415238328'
p6539
aS'9780811214049'
p6540
aS'9780809311101'
p6541
aS'9781904271338'
p6542
aS'9780822220091'
p6543
aS'9781854595409'
p6544
aS'9780060088934'
p6545
aS'9780684190402'
p6546
aS'9780822213741'
p6547
asa(dp6548
g2
VTAPS0080
p6549
sg4
(lp6550
sa(dp6551
g2
VTAPS0100
p6552
sg4
(lp6553
sa(dp6554
g2
VTAPS0200
p6555
sg4
(lp6556
sa(dp6557
g2
VTAPS0220
p6558
sg4
(lp6559
sa(dp6560
g2
VTAPS0230
p6561
sg4
(lp6562
S'9780394744124'
p6563
aS'9780878301171'
p6564
aS'9780809311101'
p6565
aS'9780553272956'
p6566
asa(dp6567
g2
VTAPS0250
p6568
sg4
(lp6569
sa(dp6570
g2
VTAPS0330
p6571
sg4
(lp6572
sa(dp6573
g2
VTAPS0930A
p6574
sg4
(lp6575
sa(dp6576
g2
VTAPS0930F
p6577
sg4
(lp6578
sa(dp6579
g2
VTAPS1000
p6580
sg4
(lp6581
sa(dp6582
g2
VTAPS1160
p6583
sg4
(lp6584
sa(dp6585
g2
VTAPS1210
p6586
sg4
(lp6587
sa(dp6588
g2
VTAPS1240
p6589
sg4
(lp6590
S'9780075536598'
p6591
aS'9780486277875'
p6592
aS'9780872204201'
p6593
aS'9780486410982'
p6594
aS'9780679753353'
p6595
aS'9780573692550'
p6596
aS'9780156013109'
p6597
aS'9780231104616'
p6598
aS'9781557830067'
p6599
aS'9780486205151'
p6600
aS'9780472082445'
p6601
aS'9780936839196'
p6602
aS'9780936839202'
p6603
aS'9780205511860'
p6604
asa(dp6605
g2
VTAPS1250
p6606
sg4
(lp6607
sa(dp6608
g2
VTAPS1280S
p6609
sg4
(lp6610
sa(dp6611
g2
VTAPS1281A
p6612
sg4
(lp6613
S'9780415404396'
p6614
aS'9780325006406'
p6615
asa(dp6616
g2
VTAPS1281V
p6617
sg4
(lp6618
sa(dp6619
g2
VTAPS1300
p6620
sg4
(lp6621
sa(dp6622
g2
VTAPS1320
p6623
sg4
(lp6624
sa(dp6625
g2
VTAPS1340
p6626
sg4
(lp6627
sa(dp6628
g2
VTAPS1360
p6629
sg4
(lp6630
sa(dp6631
g2
VTAPS1370
p6632
sg4
(lp6633
sa(dp6634
g2
VTAPS1380
p6635
sg4
(lp6636
S'9780060930318'
p6637
aS'9781886449176'
p6638
aS'9780802145628'
p6639
aS'9780472088454'
p6640
aS'9781593760977'
p6641
aS'9780486264783'
p6642
aS'9780307390318'
p6643
asa(dp6644
g2
VTAPS1500I
p6645
sg4
(lp6646
sa(dp6647
g2
VTAPS1500L
p6648
sg4
(lp6649
S'9780981559391'
p6650
aS'9781613320006'
p6651
asa(dp6652
g2
VTAPS2200M
p6653
sg4
(lp6654
sa(dp6655
g2
VTAPS2300
p6656
sg4
(lp6657
sa(dp6658
g2
VTAPS2310
p6659
sg4
(lp6660
sa(dp6661
g2
VTAPS2500
p6662
sg4
(lp6663
sa(dp6664
g2
VTAPS2550
p6665
sg4
(lp6666
sa(dp6667
g2
VTAPS2560
p6668
sg4
(lp6669
sa(dp6670
g2
VTAPS2570
p6671
sg4
(lp6672
sa(dp6673
g2
VTAPS2580
p6674
sg4
(lp6675
sa(dp6676
g2
VTAPS2650
p6677
sg4
(lp6678
sa(dp6679
g2
VTAPS2660
p6680
sg4
(lp6681
sa(dp6682
g2
VTAPS2670
p6683
sg4
(lp6684
sa(dp6685
g2
VTAPS2680
p6686
sg4
(lp6687
sa(dp6688
g2
VTAPS2700
p6689
sg4
(lp6690
sa(dp6691
g2
VTAPS2750
p6692
sg4
(lp6693
sa(dp6694
g2
VTAPS2760
p6695
sg4
(lp6696
sa(dp6697
g2
VTAPS2770
p6698
sg4
(lp6699
sa(dp6700
g2
VUNIV1000
p6701
sg4
(lp6702
sa(dp6703
g2
VUNIV1520
p6704
sg4
(lp6705
S'9780684833323'
p6706
aS'9780805045567'
p6707
aS'9780262517751'
p6708
aS'9780679763994'
p6709
aS'9780679724629'
p6710
aS'9780385084765'
p6711
aS'9780415254069'
p6712
aS'9780231049993'
p6713
asa(dp6714
g2
VUNIV1700
p6715
sg4
(lp6716
S'9780226710204'
p6717
aS'9781890951610'
p6718
aS'9780520275812'
p6719
asa(dp6720
g2
VURBN1000
p6721
sg4
(lp6722
sa(dp6723
g2
VURBN1200
p6724
sg4
(lp6725
S'9780691121864'
p6726
aS'9780231133739'
p6727
aS'9780415945943'
p6728
aS'9780195176148'
p6729
aS'9780679733478'
p6730
asa(dp6731
g2
VURBN1300
p6732
sg4
(lp6733
sa(dp6734
g2
VURBN1570
p6735
sg4
(lp6736
sa(dp6737
g2
VURBN1870D
p6738
sg4
(lp6739
sa(dp6740
g2
VURBN1870R
p6741
sg4
(lp6742
S'9780415954358'
p6743
aS'9780679741954'
p6744
aS'9780691155296'
p6745
aS'9780226042749'
p6746
aS'9780393309096'
p6747
aS'9781781680742'
p6748
aS'9780972819640'
p6749
asa(dp6750
g2
VURBN1870S
p6751
sg4
(lp6752
S'9780804747547'
p6753
aS'9781608461288'
p6754
aS'9780822350804'
p6755
aS'9780375714887'
p6756
aS'9780195372939'
p6757
asa(dp6758
g2
VURBN1981
p6759
sg4
(lp6760
sa(dp6761
g2
VVISA0061
p6762
sg4
(lp6763
sa(dp6764
g2
VVISA0100
p6765
sg4
(lp6766
sa(dp6767
g2
VVISA0120
p6768
sg4
(lp6769
sa(dp6770
g2
VVISA0130
p6771
sg4
(lp6772
sa(dp6773
g2
VVISA1120
p6774
sg4
(lp6775
sa(dp6776
g2
VVISA1210A
p6777
sg4
(lp6778
sa(dp6779
g2
VVISA1210G
p6780
sg4
(lp6781
sa(dp6782
g2
VVISA1240
p6783
sg4
(lp6784
sa(dp6785
g2
VVISA1250
p6786
sg4
(lp6787
sa(dp6788
g2
VVISA1310
p6789
sg4
(lp6790
sa(dp6791
g2
VVISA1320
p6792
sg4
(lp6793
sa(dp6794
g2
VVISA1330
p6795
sg4
(lp6796
sa(dp6797
g2
VVISA1420
p6798
sg4
(lp6799
sa(dp6800
g2
VVISA1510
p6801
sg4
(lp6802
sa(dp6803
g2
VVISA1520
p6804
sg4
(lp6805
sa(dp6806
g2
VVISA1710
p6807
sg4
(lp6808
sa(dp6809
g2
VVISA1800L
p6810
sg4
(lp6811
sa(dp6812
g2
VVISA1800N
p6813
sg4
(lp6814
sa(dp6815
g2
VVISA1800O
p6816
sg4
(lp6817
sa(dp6818
g2
VVISA1800P
p6819
sg4
(lp6820
sa(dp6821
g2
VWAYLAND1
p6822
sg4
(lp6823
S'9781581211351'
p6824
aS'9780851707242'
p6825
aS'9780132136839'
p6826
aS'9780321856562'
p6827
aS'9780716717287'
p6828
asa.