(lp0
(dp1
S'sect_ids'
p2
(lp3
V6475629
p4
asS'id'
p5
VAFRI0710A
p6
sa(dp7
g2
(lp8
V6475630
p9
asg5
VAFRI0760A
p10
sa(dp11
g2
(lp12
V6475631
p13
asg5
VAFRI0990
p14
sa(dp15
g2
(lp16
V6475632
p17
asg5
VAFRI1020C
p18
sa(dp19
g2
(lp20
V6475633
p21
asg5
VAFRI1050A
p22
sa(dp23
g2
(lp24
V6475634
p25
asg5
VAFRI1050D
p26
sa(dp27
g2
(lp28
V6475635
p29
asg5
VAFRI1050E
p30
sa(dp31
g2
(lp32
V6629856
p33
asg5
VAFRI1050G
p34
sa(dp35
g2
(lp36
V6475636
p37
asg5
VAFRI1050Q
p38
sa(dp39
g2
(lp40
V6475637
p41
asg5
VAFRI1050R
p42
sa(dp43
g2
(lp44
V6591062
p45
asg5
VAFRI1060E
p46
sa(dp47
g2
(lp48
V6475638
p49
asg5
VAFRI1060V
p50
sa(dp51
g2
(lp52
V6475639
p53
asg5
VAFRI1090
p54
sa(dp55
g2
(lp56
V6629857
p57
asg5
VAFRI1190
p58
sa(dp59
g2
(lp60
V6475640
p61
asg5
VAFRI1260
p62
sa(dp63
g2
(lp64
V6475641
p65
asg5
VAFRI1360
p66
sa(dp67
g2
(lp68
V6475642
p69
asg5
VAFRI1540
p70
sa(dp71
g2
(lp72
V6475643
p73
asg5
VAFRI1640
p74
sa(dp75
g2
(lp76
V6475644
p77
asg5
VAFRI1955
p78
sa(dp79
g2
(lp80
V6475645
p81
asg5
VAFRI2002
p82
sa(dp83
g2
(lp84
V6629858
p85
asg5
VAFRI2102
p86
sa(dp87
g2
(lp88
V6475646
p89
asg5
VAFRI2104
p90
sa(dp91
g2
(lp92
V6629859
p93
asg5
VAFRI2500
p94
sa(dp95
g2
(lp96
V6475647
p97
asg5
VAMST0150K
p98
sa(dp99
g2
(lp100
V6475648
p101
asg5
VAMST0191Q
p102
sa(dp103
g2
(lp104
V6475649
p105
asg5
VAMST0191R
p106
sa(dp107
g2
(lp108
V6475650
p109
asg5
VAMST0191S
p110
sa(dp111
g2
(lp112
V6475651
p113
asg5
VAMST1010
p114
sa(dp115
g2
(lp116
V6475652
p117
asg5
VAMST1550
p118
sa(dp119
g2
(lp120
V6475653
p121
asg5
VAMST1611M
p122
sa(dp123
g2
(lp124
V6475654
p125
asg5
VAMST1611Z
p126
sa(dp127
g2
(lp128
V6475655
p129
asg5
VAMST1700I
p130
sa(dp131
g2
(lp132
V6531523
p133
asg5
VAMST1800
p134
sa(dp135
g2
(lp136
V6581809
p137
asg5
VAMST1900A
p138
sa(dp139
g2
(lp140
V6651393
p141
aV6687460
p142
asg5
VAMST1900C
p143
sa(dp144
g2
(lp145
V6475656
p146
asg5
VAMST1903G
p147
sa(dp148
g2
(lp149
V6581810
p150
asg5
VAMST1903J
p151
sa(dp152
g2
(lp153
V6477035
p154
asg5
VAMST1904F
p155
sa(dp156
g2
(lp157
V6475657
p158
asg5
VAMST1904M
p159
sa(dp160
g2
(lp161
V6475658
p162
asg5
VAMST1904V
p163
sa(dp164
g2
(lp165
V6477036
p166
asg5
VAMST1904X
p167
sa(dp168
g2
(lp169
V6475659
p170
asg5
VAMST1905C
p171
sa(dp172
g2
(lp173
V6475660
p174
asg5
VAMST2220A
p175
sa(dp176
g2
(lp177
V6475661
p178
asg5
VAMST2220B
p179
sa(dp180
g2
(lp181
V6629860
p182
asg5
VAMST2220F
p183
sa(dp184
g2
(lp185
V6477037
p186
asg5
VAMST2540
p187
sa(dp188
g2
(lp189
V6475662
p190
asg5
VAMST2670
p191
sa(dp192
g2
(lp193
V6475663
p194
asg5
VAMST2680
p195
sa(dp196
g2
(lp197
V6475664
p198
asg5
VAMST2690
p199
sa(dp200
g2
(lp201
V6581811
p202
asg5
VAMST2691
p203
sa(dp204
g2
(lp205
V6475665
p206
asg5
VANTH0066N
p207
sa(dp208
g2
(lp209
V6475666
p210
asg5
VANTH0100
p211
sa(dp212
g2
(lp213
V6475667
p214
asg5
VANTH0450
p215
sa(dp216
g2
(lp217
V6475668
p218
asg5
VANTH0500
p219
sa(dp220
g2
(lp221
V6475669
p222
asg5
VANTH1100
p223
sa(dp224
g2
(lp225
V6475670
p226
asg5
VANTH1110
p227
sa(dp228
g2
(lp229
V6475671
p230
asg5
VANTH1125
p231
sa(dp232
g2
(lp233
V6475672
p234
asg5
VANTH1151
p235
sa(dp236
g2
(lp237
V6475673
p238
asg5
VANTH1221
p239
sa(dp240
g2
(lp241
V6475674
p242
asg5
VANTH1232
p243
sa(dp244
g2
(lp245
V6475675
p246
asg5
VANTH1240
p247
sa(dp248
g2
(lp249
V6624157
p250
asg5
VANTH1301
p251
sa(dp252
g2
(lp253
V6475676
p254
asg5
VANTH1310
p255
sa(dp256
g2
(lp257
V6475677
p258
asg5
VANTH1320
p259
sa(dp260
g2
(lp261
V6475678
p262
asg5
VANTH1322
p263
sa(dp264
g2
(lp265
V6475679
p266
asg5
VANTH1323
p267
sa(dp268
g2
(lp269
V6475680
p270
asg5
VANTH1411
p271
sa(dp272
g2
(lp273
V6591063
p274
asg5
VANTH1552
p275
sa(dp276
g2
(lp277
V6475681
p278
asg5
VANTH1623
p279
sa(dp280
g2
(lp281
V6475682
p282
asg5
VANTH1720
p283
sa(dp284
g2
(lp285
V6475683
p286
asg5
VANTH1810
p287
sa(dp288
g2
(lp289
V6528873
p290
asg5
VANTH1901
p291
sa(dp292
g2
(lp293
V6475684
p294
asg5
VANTH1910G
p295
sa(dp296
g2
(lp297
V6475685
p298
asg5
VANTH2010
p299
sa(dp300
g2
(lp301
V6475686
p302
asg5
VANTH2020
p303
sa(dp304
g2
(lp305
V6528060
p306
asg5
VANTH2050
p307
sa(dp308
g2
(lp309
V6475687
p310
asg5
VANTH2130
p311
sa(dp312
g2
(lp313
V6475688
p314
asg5
VANTH2320
p315
sa(dp316
g2
(lp317
V6475689
p318
asg5
VANTH2800
p319
sa(dp320
g2
(lp321
V6475690
p322
asg5
VAPMA0160
p323
sa(dp324
g2
(lp325
V6475691
p326
asg5
VAPMA0330
p327
sa(dp328
g2
(lp329
V6475692
p330
asg5
VAPMA0340
p331
sa(dp332
g2
(lp333
V6475693
p334
asg5
VAPMA0350
p335
sa(dp336
g2
(lp337
V6475694
p338
asg5
VAPMA0360
p339
sa(dp340
g2
(lp341
V6475695
p342
asg5
VAPMA0650
p343
sa(dp344
g2
(lp345
V6475696
p346
asg5
VAPMA1080
p347
sa(dp348
g2
(lp349
V6475697
p350
asg5
VAPMA1200
p351
sa(dp352
g2
(lp353
V6475698
p354
asg5
VAPMA1360
p355
sa(dp356
g2
(lp357
V6475699
p358
asg5
VAPMA1660
p359
sa(dp360
g2
(lp361
V6705739
p362
asg5
VAPMA1740
p363
sa(dp364
g2
(lp365
V6475700
p366
asg5
VAPMA1940T
p367
sa(dp368
g2
(lp369
V6475701
p370
asg5
VAPMA2200
p371
sa(dp372
g2
(lp373
V6475702
p374
asg5
VAPMA2240
p375
sa(dp376
g2
(lp377
V6475703
p378
asg5
VAPMA2560
p379
sa(dp380
g2
(lp381
V6475704
p382
asg5
VAPMA2580B
p383
sa(dp384
g2
(lp385
V6475705
p386
asg5
VAPMA2610
p387
sa(dp388
g2
(lp389
V6475706
p390
asg5
VAPMA2640
p391
sa(dp392
g2
(lp393
V6475707
p394
asg5
VAPMA2811O
p395
sa(dp396
g2
(lp397
V6475708
p398
asg5
VAPMA2821S
p399
sa(dp400
g2
(lp401
V6705738
p402
asg5
VAPMAAPMA 1740
p403
sa(dp404
g2
(lp405
V6581812
p406
asg5
VARAB0110
p407
sa(dp408
g2
(lp409
V6475709
p410
aV6475710
p411
aV6475711
p412
aV6581813
p413
asg5
VARAB0200
p414
sa(dp415
g2
(lp416
V6629861
p417
asg5
VARAB0210
p418
sa(dp419
g2
(lp420
V6475712
p421
aV6475713
p422
asg5
VARAB0400
p423
sa(dp424
g2
(lp425
V6475714
p426
asg5
VARAB0600
p427
sa(dp428
g2
(lp429
V6475715
p430
asg5
VARAB0800
p431
sa(dp432
g2
(lp433
V6475716
p434
asg5
VARCH0100
p435
sa(dp436
g2
(lp437
V6475717
p438
asg5
VARCH0365
p439
sa(dp440
g2
(lp441
V6475718
p442
asg5
VARCH0420
p443
sa(dp444
g2
(lp445
V6591064
p446
asg5
VARCH1575
p447
sa(dp448
g2
(lp449
V6591065
p450
asg5
VARCH1620
p451
sa(dp452
g2
(lp453
V6475719
p454
asg5
VARCH1630
p455
sa(dp456
g2
(lp457
V6604375
p458
asg5
VARCH1764
p459
sa(dp460
g2
(lp461
V6581814
p462
asg5
VARCH1870
p463
sa(dp464
g2
(lp465
V6475720
p466
asg5
VARCH2147
p467
sa(dp468
g2
(lp469
V6528061
p470
asg5
VARCH2185
p471
sa(dp472
g2
(lp473
V6475721
p474
asg5
VARCH2230
p475
sa(dp476
g2
(lp477
V6475722
p478
asg5
VARCH2295
p479
sa(dp480
g2
(lp481
V6591066
p482
asg5
VAWAS1150
p483
sa(dp484
g2
(lp485
V6475723
p486
asg5
VAWAS1300
p487
sa(dp488
g2
(lp489
V6475724
p490
asg5
VAWAS1400
p491
sa(dp492
g2
(lp493
V6475725
p494
asg5
VAWAS1500
p495
sa(dp496
g2
(lp497
V6475726
p498
asg5
VAWAS2700
p499
sa(dp500
g2
(lp501
V6475727
p502
asg5
VBEO1940A
p503
sa(dp504
g2
(lp505
V6475728
p506
asg5
VBEO1940B
p507
sa(dp508
g2
(lp509
V6475729
p510
asg5
VBIOL0040
p511
sa(dp512
g2
(lp513
V6475730
p514
asg5
VBIOL0150A
p515
sa(dp516
g2
(lp517
V6475731
p518
asg5
VBIOL0150B
p519
sa(dp520
g2
(lp521
V6475732
p522
asg5
VBIOL0150C
p523
sa(dp524
g2
(lp525
V6475733
p526
asg5
VBIOL0150D
p527
sa(dp528
g2
(lp529
V6475734
p530
asg5
VBIOL0190H
p531
sa(dp532
g2
(lp533
V6475735
p534
asg5
VBIOL0190S
p535
sa(dp536
g2
(lp537
V6581815
p538
asg5
VBIOL0190T
p539
sa(dp540
g2
(lp541
V6475736
p542
asg5
VBIOL0200
p543
sa(dp544
g2
(lp545
V6475737
p546
asg5
VBIOL0280
p547
sa(dp548
g2
(lp549
V6475738
p550
asg5
VBIOL0320
p551
sa(dp552
g2
(lp553
V6475739
p554
asg5
VBIOL0415
p555
sa(dp556
g2
(lp557
V6475740
p558
asg5
VBIOL0420
p559
sa(dp560
g2
(lp561
V6475741
p562
asg5
VBIOL0440
p563
sa(dp564
g2
(lp565
V6475742
p566
asg5
VBIOL0495
p567
sa(dp568
g2
(lp569
V6475743
p570
asg5
VBIOL0500
p571
sa(dp572
g2
(lp573
V6475744
p574
asg5
VBIOL0510
p575
sa(dp576
g2
(lp577
V6475745
p578
asg5
VBIOL0800
p579
sa(dp580
g2
(lp581
V6475746
p582
asg5
VBIOL0920A
p583
sa(dp584
g2
(lp585
V6475747
p586
asg5
VBIOL1100
p587
sa(dp588
g2
(lp589
V6475748
p590
asg5
VBIOL1120
p591
sa(dp592
g2
(lp593
V6475749
p594
asg5
VBIOL1150
p595
sa(dp596
g2
(lp597
V6475750
p598
asg5
VBIOL1200
p599
sa(dp600
g2
(lp601
V6475751
p602
asg5
VBIOL1315
p603
sa(dp604
g2
(lp605
V6475752
p606
asg5
VBIOL1330
p607
sa(dp608
g2
(lp609
V6660086
p610
asg5
VBIOL1450
p611
sa(dp612
g2
(lp613
V6475753
p614
asg5
VBIOL1540
p615
sa(dp616
g2
(lp617
V6475754
p618
asg5
VBIOL1550
p619
sa(dp620
g2
(lp621
V6475755
p622
asg5
VBIOL1600
p623
sa(dp624
g2
(lp625
V6475756
p626
asg5
VBIOL1820
p627
sa(dp628
g2
(lp629
V6475757
p630
asg5
VBIOL1870
p631
sa(dp632
g2
(lp633
V6475758
p634
asg5
VBIOL1880
p635
sa(dp636
g2
(lp637
V6617713
p638
asg5
VBIOL2000B
p639
sa(dp640
g2
(lp641
V6604376
p642
asg5
VBIOL2000D
p643
sa(dp644
g2
(lp645
V6475759
p646
asg5
VBIOL2010
p647
sa(dp648
g2
(lp649
V6475760
p650
asg5
VBIOL2135
p651
sa(dp652
g2
(lp653
V6475761
p654
asg5
VBIOL2140
p655
sa(dp656
g2
(lp657
V6475762
p658
asg5
VBIOL2145
p659
sa(dp660
g2
(lp661
V6475763
p662
asg5
VBIOL2156
p663
sa(dp664
g2
(lp665
V6475764
p666
asg5
VBIOL2160
p667
sa(dp668
g2
(lp669
V6700465
p670
asg5
VBIOL2167
p671
sa(dp672
g2
(lp673
V6475765
p674
asg5
VBIOL2200C
p675
sa(dp676
g2
(lp677
V6475766
p678
asg5
VBIOL2240
p679
sa(dp680
g2
(lp681
V6475767
p682
asg5
VBIOL2290F
p683
sa(dp684
g2
(lp685
V6475768
p686
asg5
VBIOL2350
p687
sa(dp688
g2
(lp689
V6475769
p690
aV6475770
p691
aV6475771
p692
aV6475772
p693
asg5
VBIOL2440
p694
sa(dp695
g2
(lp696
V6475773
p697
asg5
VBIOL2540
p698
sa(dp699
g2
(lp700
V6475774
p701
asg5
VBIOL2640A
p702
sa(dp703
g2
(lp704
V6475775
p705
asg5
VBIOL2940A
p706
sa(dp707
g2
(lp708
V6475776
p709
asg5
VBIOL3001
p710
sa(dp711
g2
(lp712
V6475777
p713
asg5
VBIOL3020
p714
sa(dp715
g2
(lp716
V6685593
p717
asg5
VBIOL3030
p718
sa(dp719
g2
(lp720
V6475778
p721
aV6475779
p722
asg5
VBIOL3040
p723
sa(dp724
g2
(lp725
V6475780
p726
asg5
VBIOL3045
p727
sa(dp728
g2
(lp729
V6475781
p730
aV6475782
p731
asg5
VBIOL3050
p732
sa(dp733
g2
(lp734
V6475783
p735
asg5
VBIOL3060
p736
sa(dp737
g2
(lp738
V6475784
p739
asg5
VBIOL3070
p740
sa(dp741
g2
(lp742
V6475785
p743
aV6475786
p744
aV6685594
p745
asg5
VBIOL3080
p746
sa(dp747
g2
(lp748
V6475787
p749
asg5
VBIOL3100
p750
sa(dp751
g2
(lp752
V6475788
p753
aV6475789
p754
asg5
VBIOL3110
p755
sa(dp756
g2
(lp757
V6475790
p758
aV6475791
p759
asg5
VBIOL3120
p760
sa(dp761
g2
(lp762
V6475792
p763
asg5
VBIOL3150
p764
sa(dp765
g2
(lp766
V6475793
p767
aV6475794
p768
asg5
VBIOL3160
p769
sa(dp770
g2
(lp771
V6475795
p772
aV6685595
p773
asg5
VBIOL3165
p774
sa(dp775
g2
(lp776
V6475796
p777
asg5
VBIOL3170
p778
sa(dp779
g2
(lp780
V6475797
p781
asg5
VBIOL3180
p782
sa(dp783
g2
(lp784
V6475798
p785
aV6475799
p786
aV6688574
p787
asg5
VBIOL3190
p788
sa(dp789
g2
(lp790
V6705022
p791
asg5
VBIOL3200
p792
sa(dp793
g2
(lp794
V6475800
p795
aV6475801
p796
asg5
VBIOL3230
p797
sa(dp798
g2
(lp799
V6700466
p800
asg5
VBIOL3240
p801
sa(dp802
g2
(lp803
V6475802
p804
asg5
VBIOL3265
p805
sa(dp806
g2
(lp807
V6475803
p808
aV6475804
p809
aV6687461
p810
asg5
VBIOL3275
p811
sa(dp812
g2
(lp813
V6475805
p814
asg5
VBIOL3280
p815
sa(dp816
g2
(lp817
V6475806
p818
asg5
VBIOL3290
p819
sa(dp820
g2
(lp821
V6475807
p822
asg5
VBIOL3295
p823
sa(dp824
g2
(lp825
V6475808
p826
asg5
VBIOL3300
p827
sa(dp828
g2
(lp829
V6475809
p830
aV6624158
p831
asg5
VBIOL3310
p832
sa(dp833
g2
(lp834
V6475810
p835
asg5
VBIOL3330
p836
sa(dp837
g2
(lp838
V6685596
p839
asg5
VBIOL3331
p840
sa(dp841
g2
(lp842
V6475811
p843
asg5
VBIOL3340
p844
sa(dp845
g2
(lp846
V6475812
p847
asg5
VBIOL3350
p848
sa(dp849
g2
(lp850
V6475813
p851
aV6475814
p852
aV6475815
p853
aV6475816
p854
asg5
VBIOL3360
p855
sa(dp856
g2
(lp857
V6475817
p858
aV6475818
p859
aV6687462
p860
asg5
VBIOL3365
p861
sa(dp862
g2
(lp863
V6475819
p864
asg5
VBIOL3370
p865
sa(dp866
g2
(lp867
V6700467
p868
asg5
VBIOL3390
p869
sa(dp870
g2
(lp871
V6475820
p872
asg5
VBIOL3400
p873
sa(dp874
g2
(lp875
V6475821
p876
asg5
VBIOL3405
p877
sa(dp878
g2
(lp879
V6475822
p880
asg5
VBIOL3490
p881
sa(dp882
g2
(lp883
V6475823
p884
asg5
VBIOL3500
p885
sa(dp886
g2
(lp887
V6475824
p888
asg5
VBIOL3650
p889
sa(dp890
g2
(lp891
V6475825
p892
asg5
VBIOL3651
p893
sa(dp894
g2
(lp895
V6475826
p896
asg5
VBIOL3652
p897
sa(dp898
g2
(lp899
V6475827
p900
asg5
VBIOL3653
p901
sa(dp902
g2
(lp903
V6475828
p904
asg5
VBIOL3654
p905
sa(dp906
g2
(lp907
V6475829
p908
asg5
VBIOL3670
p909
sa(dp910
g2
(lp911
V6475830
p912
asg5
VBIOL3671
p913
sa(dp914
g2
(lp915
V6475831
p916
asg5
VBIOL3672
p917
sa(dp918
g2
(lp919
V6475832
p920
asg5
VBIOL3673
p921
sa(dp922
g2
(lp923
V6475833
p924
asg5
VBIOL3675
p925
sa(dp926
g2
(lp927
V6475834
p928
asg5
VBIOL3676
p929
sa(dp930
g2
(lp931
V6475835
p932
aV6475836
p933
asg5
VBIOL3750
p934
sa(dp935
g2
(lp936
V6475837
p937
asg5
VBIOL3770
p938
sa(dp939
g2
(lp940
V6475838
p941
aV6475839
p942
asg5
VBIOL3790
p943
sa(dp944
g2
(lp945
V6685597
p946
asg5
VBIOL3795
p947
sa(dp948
g2
(lp949
V6475840
p950
asg5
VBIOL3800
p951
sa(dp952
g2
(lp953
V6685598
p954
aV6687463
p955
asg5
VBIOL3810
p956
sa(dp957
g2
(lp958
V6475841
p959
aV6475842
p960
aV6475843
p961
aV6475844
p962
asg5
VBIOL3820
p963
sa(dp964
g2
(lp965
V6475845
p966
asg5
VBIOL3900
p967
sa(dp968
g2
(lp969
V6475846
p970
asg5
VBIOL3910
p971
sa(dp972
g2
(lp973
V6475847
p974
asg5
VBIOL3930
p975
sa(dp976
g2
(lp977
V6475848
p978
asg5
VBIOL3940
p979
sa(dp980
g2
(lp981
V6475849
p982
aV6475850
p983
asg5
VBIOL3950
p984
sa(dp985
g2
(lp986
V6685599
p987
asg5
VBIOL3960
p988
sa(dp989
g2
(lp990
V6475851
p991
aV6475852
p992
aV6475853
p993
asg5
VBIOL3965
p994
sa(dp995
g2
(lp996
V6475854
p997
aV6475855
p998
asg5
VBIOL4010
p999
sa(dp1000
g2
(lp1001
V6685600
p1002
aV6700468
p1003
asg5
VBIOL4011
p1004
sa(dp1005
g2
(lp1006
V6685601
p1007
asg5
VBIOL4012
p1008
sa(dp1009
g2
(lp1010
V6475856
p1011
asg5
VBIOL4020
p1012
sa(dp1013
g2
(lp1014
V6475857
p1015
aV6475858
p1016
asg5
VBIOL4030
p1017
sa(dp1018
g2
(lp1019
V6475859
p1020
aV6475860
p1021
asg5
VBIOL4060
p1022
sa(dp1023
g2
(lp1024
V6475861
p1025
aV6475862
p1026
asg5
VBIOL4070
p1027
sa(dp1028
g2
(lp1029
V6475863
p1030
aV6475864
p1031
aV6475865
p1032
aV6687464
p1033
asg5
VBIOL4080
p1034
sa(dp1035
g2
(lp1036
V6475866
p1037
asg5
VBIOL4090
p1038
sa(dp1039
g2
(lp1040
V6475867
p1041
asg5
VBIOL4100
p1042
sa(dp1043
g2
(lp1044
V6475868
p1045
asg5
VBIOL4120
p1046
sa(dp1047
g2
(lp1048
V6475869
p1049
asg5
VBIOL4140
p1050
sa(dp1051
g2
(lp1052
V6475870
p1053
asg5
VBIOL4160
p1054
sa(dp1055
g2
(lp1056
V6475871
p1057
asg5
VBIOL4190
p1058
sa(dp1059
g2
(lp1060
V6475872
p1061
aV6475873
p1062
asg5
VBIOL4210
p1063
sa(dp1064
g2
(lp1065
V6475874
p1066
aV6685602
p1067
asg5
VBIOL4250
p1068
sa(dp1069
g2
(lp1070
V6475875
p1071
asg5
VBIOL4300
p1072
sa(dp1073
g2
(lp1074
V6475876
p1075
asg5
VBIOL4500
p1076
sa(dp1077
g2
(lp1078
V6475877
p1079
asg5
VBIOL4520
p1080
sa(dp1081
g2
(lp1082
V6475878
p1083
asg5
VBIOL4540
p1084
sa(dp1085
g2
(lp1086
V6475879
p1087
asg5
VBIOL4550
p1088
sa(dp1089
g2
(lp1090
V6475880
p1091
asg5
VBIOL4560
p1092
sa(dp1093
g2
(lp1094
V6475881
p1095
asg5
VBIOL4570
p1096
sa(dp1097
g2
(lp1098
V6475882
p1099
asg5
VBIOL4580
p1100
sa(dp1101
g2
(lp1102
V6475883
p1103
aV6700469
p1104
asg5
VBIOL4600
p1105
sa(dp1106
g2
(lp1107
V6475884
p1108
aV6475885
p1109
aV6475886
p1110
asg5
VBIOL4610
p1111
sa(dp1112
g2
(lp1113
V6475887
p1114
asg5
VBIOL4630
p1115
sa(dp1116
g2
(lp1117
V6475888
p1118
asg5
VBIOL4640
p1119
sa(dp1120
g2
(lp1121
V6475889
p1122
asg5
VBIOL4900
p1123
sa(dp1124
g2
(lp1125
V6475890
p1126
asg5
VBIOL4910
p1127
sa(dp1128
g2
(lp1129
V6475891
p1130
aV6475892
p1131
aV6475893
p1132
asg5
VBIOL4930
p1133
sa(dp1134
g2
(lp1135
V6475894
p1136
asg5
VBIOL4940
p1137
sa(dp1138
g2
(lp1139
V6475895
p1140
asg5
VBIOL4950
p1141
sa(dp1142
g2
(lp1143
V6475896
p1144
asg5
VBIOL4975
p1145
sa(dp1146
g2
(lp1147
V6475897
p1148
asg5
VBIOL4980
p1149
sa(dp1150
g2
(lp1151
V6475898
p1152
asg5
VBIOL4990
p1153
sa(dp1154
g2
(lp1155
V6475899
p1156
asg5
VBIOL5100
p1157
sa(dp1158
g2
(lp1159
V6475900
p1160
asg5
VBIOL5110
p1161
sa(dp1162
g2
(lp1163
V6475901
p1164
asg5
VBIOL5130
p1165
sa(dp1166
g2
(lp1167
V6685603
p1168
asg5
VBIOL5140
p1169
sa(dp1170
g2
(lp1171
V6685604
p1172
asg5
VBIOL5150
p1173
sa(dp1174
g2
(lp1175
V6475902
p1176
aV6475903
p1177
aV6475904
p1178
aV6475905
p1179
asg5
VBIOL5200
p1180
sa(dp1181
g2
(lp1182
V6685605
p1183
asg5
VBIOL5210
p1184
sa(dp1185
g2
(lp1186
V6475906
p1187
asg5
VBIOL5215
p1188
sa(dp1189
g2
(lp1190
V6475907
p1191
asg5
VBIOL5220
p1192
sa(dp1193
g2
(lp1194
V6685606
p1195
asg5
VBIOL5400
p1196
sa(dp1197
g2
(lp1198
V6475908
p1199
asg5
VBIOL5490
p1200
sa(dp1201
g2
(lp1202
V6475909
p1203
asg5
VBIOL5620
p1204
sa(dp1205
g2
(lp1206
V6475910
p1207
aV6475911
p1208
aV6475912
p1209
asg5
VBIOL5625
p1210
sa(dp1211
g2
(lp1212
V6475913
p1213
aV6475914
p1214
asg5
VBIOL5630
p1215
sa(dp1216
g2
(lp1217
V6475915
p1218
asg5
VBIOL5650
p1219
sa(dp1220
g2
(lp1221
V6475916
p1222
asg5
VBIOL5800
p1223
sa(dp1224
g2
(lp1225
V6475917
p1226
asg5
VBIOL5810
p1227
sa(dp1228
g2
(lp1229
V6475918
p1230
asg5
VBIOL5820
p1231
sa(dp1232
g2
(lp1233
V6475919
p1234
aV6475920
p1235
aV6475921
p1236
asg5
VBIOL5830
p1237
sa(dp1238
g2
(lp1239
V6475922
p1240
aV6685607
p1241
asg5
VBIOL5850
p1242
sa(dp1243
g2
(lp1244
V6475923
p1245
asg5
VBIOL5860
p1246
sa(dp1247
g2
(lp1248
V6475924
p1249
aV6700470
p1250
asg5
VBIOL6010
p1251
sa(dp1252
g2
(lp1253
V6475925
p1254
aV6475926
p1255
asg5
VBIOL6110
p1256
sa(dp1257
g2
(lp1258
V6475927
p1259
asg5
VBIOL6120
p1260
sa(dp1261
g2
(lp1262
V6475928
p1263
aV6475929
p1264
asg5
VBIOL6140
p1265
sa(dp1266
g2
(lp1267
V6475930
p1268
asg5
VBIOL6260
p1269
sa(dp1270
g2
(lp1271
V6475931
p1272
aV6475932
p1273
asg5
VBIOL6270
p1274
sa(dp1275
g2
(lp1276
V6687465
p1277
aV6688575
p1278
aV6688576
p1279
asg5
VBIOL6275
p1280
sa(dp1281
g2
(lp1282
V6475933
p1283
aV6475934
p1284
asg5
VBIOL6280
p1285
sa(dp1286
g2
(lp1287
V6475935
p1288
aV6475936
p1289
asg5
VBIOL6290
p1290
sa(dp1291
g2
(lp1292
V6685608
p1293
asg5
VBIOL6320
p1294
sa(dp1295
g2
(lp1296
V6475937
p1297
asg5
VBIOL6330
p1298
sa(dp1299
g2
(lp1300
V6475938
p1301
asg5
VBIOL6360
p1302
sa(dp1303
g2
(lp1304
V6700471
p1305
asg5
VBIOL6380
p1306
sa(dp1307
g2
(lp1308
V6475939
p1309
asg5
VBIOL6390
p1310
sa(dp1311
g2
(lp1312
V6475940
p1313
aV6475941
p1314
asg5
VBIOL6400
p1315
sa(dp1316
g2
(lp1317
V6475942
p1318
aV6475943
p1319
aV6475944
p1320
aV6475945
p1321
asg5
VBIOL7000
p1322
sa(dp1323
g2
(lp1324
V6475946
p1325
aV6475947
p1326
asg5
VBIOL7010
p1327
sa(dp1328
g2
(lp1329
V6475948
p1330
aV6475949
p1331
asg5
VBIOL7020
p1332
sa(dp1333
g2
(lp1334
V6475950
p1335
aV6475951
p1336
aV6475952
p1337
aV6475953
p1338
aV6475954
p1339
aV6475955
p1340
aV6475956
p1341
aV6475957
p1342
aV6679627
p1343
aV6685609
p1344
asg5
VBIOL7100
p1345
sa(dp1346
g2
(lp1347
V6475958
p1348
aV6475959
p1349
aV6685610
p1350
aV6700472
p1351
asg5
VBIOL7110
p1352
sa(dp1353
g2
(lp1354
V6475960
p1355
aV6700473
p1356
aV6700474
p1357
asg5
VBIOL7120
p1358
sa(dp1359
g2
(lp1360
V6475961
p1361
asg5
VBIOL7140
p1362
sa(dp1363
g2
(lp1364
V6475962
p1365
aV6475963
p1366
aV6475964
p1367
asg5
VBIOL7160
p1368
sa(dp1369
g2
(lp1370
V6475965
p1371
aV6475966
p1372
aV6475967
p1373
aV6475968
p1374
aV6475969
p1375
aV6475970
p1376
aV6475971
p1377
aV6475972
p1378
aV6685611
p1379
asg5
VBIOL7500
p1380
sa(dp1381
g2
(lp1382
V6475973
p1383
asg5
VBIOL7600
p1384
sa(dp1385
g2
(lp1386
V6475974
p1387
asg5
VCATL0100
p1388
sa(dp1389
g2
(lp1390
V6475975
p1391
aV6475976
p1392
asg5
VCATL0200
p1393
sa(dp1394
g2
(lp1395
V6475977
p1396
asg5
VCATL0300
p1397
sa(dp1398
g2
(lp1399
V6531527
p1400
asg5
VCHEM0080
p1401
sa(dp1402
g2
(lp1403
V6475978
p1404
asg5
VCHEM0080F
p1405
sa(dp1406
g2
(lp1407
V6475979
p1408
asg5
VCHEM0330
p1409
sa(dp1410
g2
(lp1411
V6531521
p1412
asg5
VCHEM033T
p1413
sa(dp1414
g2
(lp1415
V6475980
p1416
aV6475981
p1417
asg5
VCHEM0350
p1418
sa(dp1419
g2
(lp1420
V6475982
p1421
asg5
VCHEM0400
p1422
sa(dp1423
g2
(lp1424
V6475983
p1425
asg5
VCHEM0500
p1426
sa(dp1427
g2
(lp1428
V6475984
p1429
asg5
VCHEM1150
p1430
sa(dp1431
g2
(lp1432
V6475985
p1433
asg5
VCHEM1160
p1434
sa(dp1435
g2
(lp1436
V6475986
p1437
asg5
VCHEM1240
p1438
sa(dp1439
g2
(lp1440
V6475987
p1441
asg5
VCHEM1450
p1442
sa(dp1443
g2
(lp1444
V6475988
p1445
asg5
VCHEM1560G
p1446
sa(dp1447
g2
(lp1448
V6475989
p1449
asg5
VCHEM1620B
p1450
sa(dp1451
g2
(lp1452
V6624155
p1453
asg5
VCHEM1660
p1454
sa(dp1455
g2
(lp1456
V6475990
p1457
asg5
VCHEM2020
p1458
sa(dp1459
g2
(lp1460
V6475991
p1461
asg5
VCHEM2320
p1462
sa(dp1463
g2
(lp1464
V6475992
p1465
asg5
VCHEM2430
p1466
sa(dp1467
g2
(lp1468
V6475993
p1469
asg5
VCHEM2780
p1470
sa(dp1471
g2
(lp1472
V6475994
p1473
asg5
VCHEM2880
p1474
sa(dp1475
g2
(lp1476
V6475995
p1477
aV6475996
p1478
aV6475997
p1479
aV6475998
p1480
asg5
VCHIN0200
p1481
sa(dp1482
g2
(lp1483
V6475999
p1484
asg5
VCHIN0250
p1485
sa(dp1486
g2
(lp1487
V6476000
p1488
aV6476001
p1489
aV6476002
p1490
asg5
VCHIN0400
p1491
sa(dp1492
g2
(lp1493
V6476003
p1494
aV6476004
p1495
aV6476005
p1496
asg5
VCHIN0600
p1497
sa(dp1498
g2
(lp1499
V6476006
p1500
aV6476007
p1501
asg5
VCHIN0800
p1502
sa(dp1503
g2
(lp1504
V6476008
p1505
asg5
VCHIN0910B
p1506
sa(dp1507
g2
(lp1508
V6476009
p1509
asg5
VCLAS0400
p1510
sa(dp1511
g2
(lp1512
V6476010
p1513
asg5
VCLAS0850
p1514
sa(dp1515
g2
(lp1516
V6476011
p1517
asg5
VCLAS1120Q
p1518
sa(dp1519
g2
(lp1520
V6660090
p1521
aV6685612
p1522
asg5
VCLAS1120V
p1523
sa(dp1524
g2
(lp1525
V6476012
p1526
asg5
VCLAS1140
p1527
sa(dp1528
g2
(lp1529
V6476013
p1530
asg5
VCLAS1220
p1531
sa(dp1532
g2
(lp1533
V6476014
p1534
asg5
VCLAS1420
p1535
sa(dp1536
g2
(lp1537
V6476015
p1538
asg5
VCLAS1770
p1539
sa(dp1540
g2
(lp1541
V6476016
p1542
asg5
VCLAS1930A
p1543
sa(dp1544
g2
(lp1545
V6476017
p1546
asg5
VCLAS2110H
p1547
sa(dp1548
g2
(lp1549
V6581816
p1550
asg5
VCLAS2110I
p1551
sa(dp1552
g2
(lp1553
V6476018
p1554
asg5
VCLPS0010
p1555
sa(dp1556
g2
(lp1557
V6476019
p1558
asg5
VCLPS0030
p1559
sa(dp1560
g2
(lp1561
V6476020
p1562
asg5
VCLPS0040
p1563
sa(dp1564
g2
(lp1565
V6476021
p1566
asg5
VCLPS0050I
p1567
sa(dp1568
g2
(lp1569
V6476022
p1570
asg5
VCLPS0100
p1571
sa(dp1572
g2
(lp1573
V6476023
p1574
asg5
VCLPS0110
p1575
sa(dp1576
g2
(lp1577
V6476024
p1578
asg5
VCLPS0200
p1579
sa(dp1580
g2
(lp1581
V6476025
p1582
asg5
VCLPS0400
p1583
sa(dp1584
g2
(lp1585
V6476026
p1586
asg5
VCLPS0500
p1587
sa(dp1588
g2
(lp1589
V6476027
p1590
asg5
VCLPS0510
p1591
sa(dp1592
g2
(lp1593
V6476028
p1594
asg5
VCLPS0700
p1595
sa(dp1596
g2
(lp1597
V6476029
p1598
asg5
VCLPS0701
p1599
sa(dp1600
g2
(lp1601
V6476030
p1602
asg5
VCLPS0900
p1603
sa(dp1604
g2
(lp1605
V6476031
p1606
asg5
VCLPS1180A
p1607
sa(dp1608
g2
(lp1609
V6581817
p1610
asg5
VCLPS1193
p1611
sa(dp1612
g2
(lp1613
V6486527
p1614
asg5
VCLPS1211
p1615
sa(dp1616
g2
(lp1617
V6476032
p1618
asg5
VCLPS1291
p1619
sa(dp1620
g2
(lp1621
V6476033
p1622
asg5
VCLPS1330
p1623
sa(dp1624
g2
(lp1625
V6476034
p1626
asg5
VCLPS1360
p1627
sa(dp1628
g2
(lp1629
V6581818
p1630
asg5
VCLPS1370
p1631
sa(dp1632
g2
(lp1633
V6581819
p1634
asg5
VCLPS1383C
p1635
sa(dp1636
g2
(lp1637
V6476035
p1638
asg5
VCLPS1400
p1639
sa(dp1640
g2
(lp1641
V6476036
p1642
asg5
VCLPS1491
p1643
sa(dp1644
g2
(lp1645
V6476037
p1646
asg5
VCLPS1520
p1647
sa(dp1648
g2
(lp1649
V6476038
p1650
asg5
VCLPS1530
p1651
sa(dp1652
g2
(lp1653
V6476039
p1654
asg5
VCLPS1560
p1655
sa(dp1656
g2
(lp1657
V6476040
p1658
asg5
VCLPS1570
p1659
sa(dp1660
g2
(lp1661
V6627657
p1662
asg5
VCLPS1580C
p1663
sa(dp1664
g2
(lp1665
V6476041
p1666
asg5
VCLPS1590
p1667
sa(dp1668
g2
(lp1669
V6476042
p1670
asg5
VCLPS1610
p1671
sa(dp1672
g2
(lp1673
V6476043
p1674
asg5
VCLPS1621
p1675
sa(dp1676
g2
(lp1677
V6685613
p1678
asg5
VCLPS1680B
p1679
sa(dp1680
g2
(lp1681
V6629862
p1682
asg5
VCLPS1720
p1683
sa(dp1684
g2
(lp1685
V6476044
p1686
asg5
VCLPS1791
p1687
sa(dp1688
g2
(lp1689
V6476045
p1690
asg5
VCLPS1820
p1691
sa(dp1692
g2
(lp1693
V6476046
p1694
asg5
VCLPS1900
p1695
sa(dp1696
g2
(lp1697
V6476047
p1698
asg5
VCLPS2100
p1699
sa(dp1700
g2
(lp1701
V6476048
p1702
asg5
VCLPS2908
p1703
sa(dp1704
g2
(lp1705
V6476049
p1706
asg5
VCOLT0510K
p1707
sa(dp1708
g2
(lp1709
V6687466
p1710
asg5
VCOLT0610P
p1711
sa(dp1712
g2
(lp1713
V6476050
p1714
asg5
VCOLT0811N
p1715
sa(dp1716
g2
(lp1717
V6476051
p1718
asg5
VCOLT0811R
p1719
sa(dp1720
g2
(lp1721
V6581820
p1722
asg5
VCOLT1410L
p1723
sa(dp1724
g2
(lp1725
V6476052
p1726
asg5
VCOLT1410S
p1727
sa(dp1728
g2
(lp1729
V6476053
p1730
asg5
VCOLT1420B
p1731
sa(dp1732
g2
(lp1733
V6476054
p1734
asg5
VCOLT1421W
p1735
sa(dp1736
g2
(lp1737
V6476055
p1738
asg5
VCOLT1430D
p1739
sa(dp1740
g2
(lp1741
V6476056
p1742
asg5
VCOLT1430Y
p1743
sa(dp1744
g2
(lp1745
V6476057
p1746
asg5
VCOLT1430Z
p1747
sa(dp1748
g2
(lp1749
V6476058
p1750
asg5
VCOLT1440G
p1751
sa(dp1752
g2
(lp1753
V6476059
p1754
asg5
VCOLT1810G
p1755
sa(dp1756
g2
(lp1757
V6476060
p1758
asg5
VCOLT1811L
p1759
sa(dp1760
g2
(lp1761
V6476061
p1762
asg5
VCOLT1811U
p1763
sa(dp1764
g2
(lp1765
V6476062
p1766
asg5
VCOLT1812H
p1767
sa(dp1768
g2
(lp1769
V6581821
p1770
asg5
VCOLT1812V
p1771
sa(dp1772
g2
(lp1773
V6476063
p1774
asg5
VCOLT1813M
p1775
sa(dp1776
g2
(lp1777
V6476064
p1778
asg5
VCOLT1813N
p1779
sa(dp1780
g2
(lp1781
V6476065
p1782
asg5
VCOLT1813O
p1783
sa(dp1784
g2
(lp1785
V6476066
p1786
asg5
VCOLT1813P
p1787
sa(dp1788
g2
(lp1789
V6476067
p1790
asg5
VCOLT1813Q
p1791
sa(dp1792
g2
(lp1793
V6476068
p1794
asg5
VCOLT2540G
p1795
sa(dp1796
g2
(lp1797
V6476070
p1798
asg5
VCOLT2821G
p1799
sa(dp1800
g2
(lp1801
V6581822
p1802
asg5
VCROL0100
p1803
sa(dp1804
g2
(lp1805
V6581823
p1806
asg5
VCROL0200
p1807
sa(dp1808
g2
(lp1809
V6547263
p1810
asg5
VCROL0300
p1811
sa(dp1812
g2
(lp1813
V6547264
p1814
aV6660554
p1815
asg5
VCROL0400
p1816
sa(dp1817
g2
(lp1818
V6476071
p1819
asg5
VCSCI0040
p1820
sa(dp1821
g2
(lp1822
V6477038
p1823
asg5
VCSCI0080
p1824
sa(dp1825
g2
(lp1826
V6476072
p1827
aV6476073
p1828
asg5
VCSCI0081
p1829
sa(dp1830
g2
(lp1831
V6476074
p1832
asg5
VCSCI0082
p1833
sa(dp1834
g2
(lp1835
V6476075
p1836
asg5
VCSCI0160
p1837
sa(dp1838
g2
(lp1839
V6476076
p1840
asg5
VCSCI0180
p1841
sa(dp1842
g2
(lp1843
V6476077
p1844
asg5
VCSCI0220
p1845
sa(dp1846
g2
(lp1847
V6476078
p1848
asg5
VCSCI0320
p1849
sa(dp1850
g2
(lp1851
V6476079
p1852
asg5
VCSCI0931
p1853
sa(dp1854
g2
(lp1855
V6476080
p1856
asg5
VCSCI1280
p1857
sa(dp1858
g2
(lp1859
V6476081
p1860
asg5
VCSCI1320
p1861
sa(dp1862
g2
(lp1863
V6476082
p1864
asg5
VCSCI1410
p1865
sa(dp1866
g2
(lp1867
V6476083
p1868
asg5
VCSCI1460
p1869
sa(dp1870
g2
(lp1871
V6476084
p1872
asg5
VCSCI1480
p1873
sa(dp1874
g2
(lp1875
V6476085
p1876
asg5
VCSCI1510
p1877
sa(dp1878
g2
(lp1879
V6476086
p1880
asg5
VCSCI1550
p1881
sa(dp1882
g2
(lp1883
V6476087
p1884
asg5
VCSCI1660
p1885
sa(dp1886
g2
(lp1887
V6476088
p1888
asg5
VCSCI1670
p1889
sa(dp1890
g2
(lp1891
V6476089
p1892
asg5
VCSCI1690
p1893
sa(dp1894
g2
(lp1895
V6476090
p1896
asg5
VCSCI1800
p1897
sa(dp1898
g2
(lp1899
V6476091
p1900
asg5
VCSCI1820
p1901
sa(dp1902
g2
(lp1903
V6476092
p1904
asg5
VCSCI1950H
p1905
sa(dp1906
g2
(lp1907
V6629863
p1908
asg5
VCSCI1950U
p1909
sa(dp1910
g2
(lp1911
V6528062
p1912
asg5
VCSCI1950Y
p1913
sa(dp1914
g2
(lp1915
V6650846
p1916
asg5
VCSCI1951A
p1917
sa(dp1918
g2
(lp1919
V6706273
p1920
asg5
VCSCI1951B
p1921
sa(dp1922
g2
(lp1923
V6476093
p1924
asg5
VCSCI2240
p1925
sa(dp1926
g2
(lp1927
V6624159
p1928
asg5
VCSCI2500B
p1929
sa(dp1930
g2
(lp1931
V6476095
p1932
asg5
VCSCI2750
p1933
sa(dp1934
g2
(lp1935
V6476097
p1936
asg5
VCSCI2950U
p1937
sa(dp1938
g2
(lp1939
V6476098
p1940
asg5
VCSCI2951E
p1941
sa(dp1942
g2
(lp1943
V6541595
p1944
asg5
VCSCI2951L
p1945
sa(dp1946
g2
(lp1947
V6629864
p1948
asg5
VCSCI2951M
p1949
sa(dp1950
g2
(lp1951
V6476099
p1952
asg5
VCZCH0200--CANC
p1953
sa(dp1954
g2
(lp1955
V6476100
p1956
asg5
VCZCH0610B
p1957
sa(dp1958
g2
(lp1959
V6476101
p1960
asg5
VDEVL1500
p1961
sa(dp1962
g2
(lp1963
V6476102
p1964
asg5
VDEVL1801
p1965
sa(dp1966
g2
(lp1967
V6629865
p1968
asg5
VDEVL2010
p1969
sa(dp1970
g2
(lp1971
V6476103
p1972
asg5
VEAST1070
p1973
sa(dp1974
g2
(lp1975
V6476104
p1976
asg5
VEAST1420
p1977
sa(dp1978
g2
(lp1979
V6591067
p1980
asg5
VEAST1500
p1981
sa(dp1982
g2
(lp1983
V6476105
p1984
asg5
VEAST1950G
p1985
sa(dp1986
g2
(lp1987
V6476106
p1988
asg5
VEAST1950K
p1989
sa(dp1990
g2
(lp1991
V6541596
p1992
asg5
VEAST1950Y
p1993
sa(dp1994
g2
(lp1995
V6476107
p1996
asg5
VECON0110
p1997
sa(dp1998
g2
(lp1999
V6476108
p2000
asg5
VECON0510
p2001
sa(dp2002
g2
(lp2003
V6476109
p2004
aV6476110
p2005
asg5
VECON0710
p2006
sa(dp2007
g2
(lp2008
V6476111
p2009
aV6476112
p2010
aV6476113
p2011
asg5
VECON1110
p2012
sa(dp2013
g2
(lp2014
V6476114
p2015
asg5
VECON1130
p2016
sa(dp2017
g2
(lp2018
V6476115
p2019
aV6476116
p2020
aV6476117
p2021
asg5
VECON1210
p2022
sa(dp2023
g2
(lp2024
V6476118
p2025
asg5
VECON1225
p2026
sa(dp2027
g2
(lp2028
V6476119
p2029
asg5
VECON1275
p2030
sa(dp2031
g2
(lp2032
V6476120
p2033
asg5
VECON1305
p2034
sa(dp2035
g2
(lp2036
V6476121
p2037
asg5
VECON1310
p2038
sa(dp2039
g2
(lp2040
V6476122
p2041
asg5
VECON1450
p2042
sa(dp2043
g2
(lp2044
V6528063
p2045
asg5
VECON1460
p2046
sa(dp2047
g2
(lp2048
V6476123
p2049
asg5
VECON1480
p2050
sa(dp2051
g2
(lp2052
V6685614
p2053
asg5
VECON1486
p2054
sa(dp2055
g2
(lp2056
V6476124
p2057
asg5
VECON1510
p2058
sa(dp2059
g2
(lp2060
V6476125
p2061
asg5
VECON1550
p2062
sa(dp2063
g2
(lp2064
V6476126
p2065
asg5
VECON1620
p2066
sa(dp2067
g2
(lp2068
V6476127
p2069
asg5
VECON1629
p2070
sa(dp2071
g2
(lp2072
V6476128
p2073
asg5
VECON1630
p2074
sa(dp2075
g2
(lp2076
V6476129
p2077
asg5
VECON1640
p2078
sa(dp2079
g2
(lp2080
V6476130
p2081
asg5
VECON1710
p2082
sa(dp2083
g2
(lp2084
V6476131
p2085
asg5
VECON1720
p2086
sa(dp2087
g2
(lp2088
V6477039
p2089
asg5
VECON1730
p2090
sa(dp2091
g2
(lp2092
V6476132
p2093
asg5
VECON1765
p2094
sa(dp2095
g2
(lp2096
V6476133
p2097
asg5
VECON1820
p2098
sa(dp2099
g2
(lp2100
V6476134
p2101
asg5
VECON1870
p2102
sa(dp2103
g2
(lp2104
V6476135
p2105
asg5
VECON1940
p2106
sa(dp2107
g2
(lp2108
V6476136
p2109
asg5
VECON2020
p2110
sa(dp2111
g2
(lp2112
V6476137
p2113
asg5
VECON2040
p2114
sa(dp2115
g2
(lp2116
V6476138
p2117
asg5
VECON2060
p2118
sa(dp2119
g2
(lp2120
V6476139
p2121
asg5
VECON2080
p2122
sa(dp2123
g2
(lp2124
V6476140
p2125
asg5
VECON2090
p2126
sa(dp2127
g2
(lp2128
V6476141
p2129
asg5
VECON2180
p2130
sa(dp2131
g2
(lp2132
V6476142
p2133
asg5
VECON2360
p2134
sa(dp2135
g2
(lp2136
V6476143
p2137
asg5
VECON2370
p2138
sa(dp2139
g2
(lp2140
V6476144
p2141
asg5
VECON2470
p2142
sa(dp2143
g2
(lp2144
V6650847
p2145
asg5
VECON2490
p2146
sa(dp2147
g2
(lp2148
V6476145
p2149
asg5
VECON2660
p2150
sa(dp2151
g2
(lp2152
V6476146
p2153
asg5
VECON2840
p2154
sa(dp2155
g2
(lp2156
V6476147
p2157
asg5
VECON2930
p2158
sa(dp2159
g2
(lp2160
V6476148
p2161
asg5
VECON2950
p2162
sa(dp2163
g2
(lp2164
V6476149
p2165
asg5
VECON2960
p2166
sa(dp2167
g2
(lp2168
V6476150
p2169
asg5
VECON2970
p2170
sa(dp2171
g2
(lp2172
V6476151
p2173
asg5
VEDUC0410B
p2174
sa(dp2175
g2
(lp2176
V6476152
p2177
asg5
VEDUC0410E
p2178
sa(dp2179
g2
(lp2180
V6476153
p2181
asg5
VEDUC1070A
p2182
sa(dp2183
g2
(lp2184
V6476154
p2185
asg5
VEDUC1070B
p2186
sa(dp2187
g2
(lp2188
V6476155
p2189
asg5
VEDUC1070C
p2190
sa(dp2191
g2
(lp2192
V6476156
p2193
asg5
VEDUC1080A
p2194
sa(dp2195
g2
(lp2196
V6476157
p2197
asg5
VEDUC1080B
p2198
sa(dp2199
g2
(lp2200
V6476158
p2201
asg5
VEDUC1080C
p2202
sa(dp2203
g2
(lp2204
V6476159
p2205
asg5
VEDUC1100
p2206
sa(dp2207
g2
(lp2208
V6476160
p2209
asg5
VEDUC1110
p2210
sa(dp2211
g2
(lp2212
V6476161
p2213
asg5
VEDUC1150
p2214
sa(dp2215
g2
(lp2216
V6476162
p2217
asg5
VEDUC1200
p2218
sa(dp2219
g2
(lp2220
V6476163
p2221
asg5
VEDUC1270
p2222
sa(dp2223
g2
(lp2224
V6476164
p2225
asg5
VEDUC1290
p2226
sa(dp2227
g2
(lp2228
V6476165
p2229
asg5
VEDUC1560
p2230
sa(dp2231
g2
(lp2232
V6476166
p2233
asg5
VEDUC1580
p2234
sa(dp2235
g2
(lp2236
V6476167
p2237
asg5
VEDUC1690
p2238
sa(dp2239
g2
(lp2240
V6476168
p2241
asg5
VEDUC1730
p2242
sa(dp2243
g2
(lp2244
V6581825
p2245
asg5
VEDUC1770
p2246
sa(dp2247
g2
(lp2248
V6476169
p2249
asg5
VEDUC1860
p2250
sa(dp2251
g2
(lp2252
V6476170
p2253
asg5
VEDUC2070A
p2254
sa(dp2255
g2
(lp2256
V6476171
p2257
asg5
VEDUC2070B
p2258
sa(dp2259
g2
(lp2260
V6476172
p2261
asg5
VEDUC2070C
p2262
sa(dp2263
g2
(lp2264
V6476173
p2265
asg5
VEDUC2080A
p2266
sa(dp2267
g2
(lp2268
V6476174
p2269
asg5
VEDUC2080B
p2270
sa(dp2271
g2
(lp2272
V6476175
p2273
asg5
VEDUC2080C
p2274
sa(dp2275
g2
(lp2276
V6476176
p2277
asg5
VEDUC2140
p2278
sa(dp2279
g2
(lp2280
V6476177
p2281
asg5
VEDUC2150
p2282
sa(dp2283
g2
(lp2284
V6476178
p2285
asg5
VEDUC2270
p2286
sa(dp2287
g2
(lp2288
V6476179
p2289
asg5
VEDUC2280
p2290
sa(dp2291
g2
(lp2292
V6476180
p2293
asg5
VEDUC2330
p2294
sa(dp2295
g2
(lp2296
V6476181
p2297
asg5
VEDUC2350
p2298
sa(dp2299
g2
(lp2300
V6476182
p2301
asg5
VEDUC2360
p2302
sa(dp2303
g2
(lp2304
V6476183
p2305
asg5
VEDUC2380
p2306
sa(dp2307
g2
(lp2308
V6476184
p2309
asg5
VEGYT1320
p2310
sa(dp2311
g2
(lp2312
V6476185
p2313
asg5
VEGYT1430
p2314
sa(dp2315
g2
(lp2316
V6476186
p2317
asg5
VEGYT1465
p2318
sa(dp2319
g2
(lp2320
V6476187
p2321
asg5
VEGYT2210
p2322
sa(dp2323
g2
(lp2324
V6476188
p2325
asg5
VEGYT2410
p2326
sa(dp2327
g2
(lp2328
V6476189
p2329
asg5
VEGYT2420
p2330
sa(dp2331
g2
(lp2332
V6476190
p2333
asg5
VEINT2100
p2334
sa(dp2335
g2
(lp2336
V6476191
p2337
asg5
VEINT2200
p2338
sa(dp2339
g2
(lp2340
V6476192
p2341
asg5
VEINT2300
p2342
sa(dp2343
g2
(lp2344
V6476193
p2345
aV6476194
p2346
asg5
VEINT2400
p2347
sa(dp2348
g2
(lp2349
V6476195
p2350
aV6688577
p2351
asg5
VEINT2500
p2352
sa(dp2353
g2
(lp2354
V6475626
p2355
asg5
VEMHL2030
p2356
sa(dp2357
g2
(lp2358
V6475625
p2359
asg5
VEMHL2040
p2360
sa(dp2361
g2
(lp2362
V6476196
p2363
aV6476197
p2364
aV6476198
p2365
aV6476199
p2366
aV6541597
p2367
asg5
VENGL0110
p2368
sa(dp2369
g2
(lp2370
V6476200
p2371
aV6476201
p2372
aV6476202
p2373
asg5
VENGL0130
p2374
sa(dp2375
g2
(lp2376
V6476203
p2377
asg5
VENGL0160
p2378
sa(dp2379
g2
(lp2380
V6476204
p2381
aV6476205
p2382
aV6476206
p2383
aV6476207
p2384
aV6476208
p2385
aV6476209
p2386
asg5
VENGL0180
p2387
sa(dp2388
g2
(lp2389
V6476210
p2390
asg5
VENGL0201W
p2391
sa(dp2392
g2
(lp2393
V6476211
p2394
asg5
VENGL0201Y
p2395
sa(dp2396
g2
(lp2397
V6476212
p2398
asg5
VENGL0201Z
p2399
sa(dp2400
g2
(lp2401
V6476213
p2402
asg5
VENGL0202A
p2403
sa(dp2404
g2
(lp2405
V6476214
p2406
asg5
VENGL0300K
p2407
sa(dp2408
g2
(lp2409
V6476215
p2410
asg5
VENGL0310A
p2411
sa(dp2412
g2
(lp2413
V6476216
p2414
asg5
VENGL0310C
p2415
sa(dp2416
g2
(lp2417
V6476217
p2418
asg5
VENGL0500G
p2419
sa(dp2420
g2
(lp2421
V6476218
p2422
asg5
VENGL0500N
p2423
sa(dp2424
g2
(lp2425
V6476219
p2426
asg5
VENGL0510R
p2427
sa(dp2428
g2
(lp2429
V6476220
p2430
asg5
VENGL0700E
p2431
sa(dp2432
g2
(lp2433
V6476221
p2434
asg5
VENGL0700G
p2435
sa(dp2436
g2
(lp2437
V6476222
p2438
asg5
VENGL0710K
p2439
sa(dp2440
g2
(lp2441
V6476223
p2442
asg5
VENGL0710M
p2443
sa(dp2444
g2
(lp2445
V6476224
p2446
asg5
VENGL0760O
p2447
sa(dp2448
g2
(lp2449
V6476225
p2450
asg5
VENGL1140A
p2451
sa(dp2452
g2
(lp2453
V6476226
p2454
asg5
VENGL1160F
p2455
sa(dp2456
g2
(lp2457
V6476227
p2458
asg5
VENGL1180I
p2459
sa(dp2460
g2
(lp2461
V6476228
p2462
asg5
VENGL1180Q
p2463
sa(dp2464
g2
(lp2465
V6476229
p2466
asg5
VENGL1180R
p2467
sa(dp2468
g2
(lp2469
V6476230
p2470
asg5
VENGL1190A
p2471
sa(dp2472
g2
(lp2473
V6476231
p2474
asg5
VENGL1190Q
p2475
sa(dp2476
g2
(lp2477
V6476232
p2478
asg5
VENGL1310H
p2479
sa(dp2480
g2
(lp2481
V6476233
p2482
asg5
VENGL1311E
p2483
sa(dp2484
g2
(lp2485
V6476234
p2486
asg5
VENGL1360F
p2487
sa(dp2488
g2
(lp2489
V6476235
p2490
asg5
VENGL1360W
p2491
sa(dp2492
g2
(lp2493
V6476236
p2494
asg5
VENGL1360X
p2495
sa(dp2496
g2
(lp2497
V6476237
p2498
asg5
VENGL1360Z
p2499
sa(dp2500
g2
(lp2501
V6476238
p2502
asg5
VENGL1510A
p2503
sa(dp2504
g2
(lp2505
V6476239
p2506
asg5
VENGL1511K
p2507
sa(dp2508
g2
(lp2509
V6476240
p2510
asg5
VENGL1511M
p2511
sa(dp2512
g2
(lp2513
V6476241
p2514
asg5
VENGL1560R
p2515
sa(dp2516
g2
(lp2517
V6476242
p2518
asg5
VENGL1560W
p2519
sa(dp2520
g2
(lp2521
V6476243
p2522
asg5
VENGL1710I
p2523
sa(dp2524
g2
(lp2525
V6476244
p2526
asg5
VENGL1711A
p2527
sa(dp2528
g2
(lp2529
V6476245
p2530
asg5
VENGL1760Q
p2531
sa(dp2532
g2
(lp2533
V6476246
p2534
asg5
VENGL1761P
p2535
sa(dp2536
g2
(lp2537
V6476247
p2538
asg5
VENGL1762B
p2539
sa(dp2540
g2
(lp2541
V6476248
p2542
asg5
VENGL1900T
p2543
sa(dp2544
g2
(lp2545
V6476249
p2546
asg5
VENGL1901E
p2547
sa(dp2548
g2
(lp2549
V6476250
p2550
asg5
VENGL1910E
p2551
sa(dp2552
g2
(lp2553
V6476251
p2554
asg5
VENGL1950E
p2555
sa(dp2556
g2
(lp2557
V6476252
p2558
asg5
VENGL1992
p2559
sa(dp2560
g2
(lp2561
V6476253
p2562
asg5
VENGL1994
p2563
sa(dp2564
g2
(lp2565
V6476254
p2566
asg5
VENGL2360U
p2567
sa(dp2568
g2
(lp2569
V6476255
p2570
asg5
VENGL2561G
p2571
sa(dp2572
g2
(lp2573
V6476256
p2574
asg5
VENGL2760Y
p2575
sa(dp2576
g2
(lp2577
V6476257
p2578
asg5
VENGL2900T
p2579
sa(dp2580
g2
(lp2581
V6476258
p2582
asg5
VENGL2900U
p2583
sa(dp2584
g2
(lp2585
V6476259
p2586
asg5
VENGN0020
p2587
sa(dp2588
g2
(lp2589
V6476260
p2590
aV6476261
p2591
aV6476262
p2592
aV6476263
p2593
aV6476264
p2594
asg5
VENGN0040
p2595
sa(dp2596
g2
(lp2597
V6476265
p2598
asg5
VENGN0120A
p2599
sa(dp2600
g2
(lp2601
V6476266
p2602
asg5
VENGN0120B
p2603
sa(dp2604
g2
(lp2605
V6476267
p2606
asg5
VENGN0260
p2607
sa(dp2608
g2
(lp2609
V6476268
p2610
aV6476269
p2611
aV6476270
p2612
aV6476271
p2613
asg5
VENGN0520
p2614
sa(dp2615
g2
(lp2616
V6476272
p2617
aV6476273
p2618
asg5
VENGN0720
p2619
sa(dp2620
g2
(lp2621
V6476274
p2622
aV6581826
p2623
asg5
VENGN0900
p2624
sa(dp2625
g2
(lp2626
V6476275
p2627
asg5
VENGN0930A
p2628
sa(dp2629
g2
(lp2630
V6476276
p2631
asg5
VENGN0930C
p2632
sa(dp2633
g2
(lp2634
V6685615
p2635
asg5
VENGN0931
p2636
sa(dp2637
g2
(lp2638
V6476277
p2639
aV6685616
p2640
asg5
VENGN1000
p2641
sa(dp2642
g2
(lp2643
V6476278
p2644
aV6476279
p2645
asg5
VENGN1010
p2646
sa(dp2647
g2
(lp2648
V6476280
p2649
asg5
VENGN1110
p2650
sa(dp2651
g2
(lp2652
V6476281
p2653
asg5
VENGN1140
p2654
sa(dp2655
g2
(lp2656
V6476282
p2657
asg5
VENGN1210
p2658
sa(dp2659
g2
(lp2660
V6476283
p2661
asg5
VENGN1220
p2662
sa(dp2663
g2
(lp2664
V6476284
p2665
asg5
VENGN1300
p2666
sa(dp2667
g2
(lp2668
V6476285
p2669
asg5
VENGN1340
p2670
sa(dp2671
g2
(lp2672
V6476286
p2673
asg5
VENGN1360
p2674
sa(dp2675
g2
(lp2676
V6476287
p2677
asg5
VENGN1370
p2678
sa(dp2679
g2
(lp2680
V6476288
p2681
asg5
VENGN1420
p2682
sa(dp2683
g2
(lp2684
V6476289
p2685
asg5
VENGN1440
p2686
sa(dp2687
g2
(lp2688
V6476290
p2689
asg5
VENGN1480
p2690
sa(dp2691
g2
(lp2692
V6476291
p2693
asg5
VENGN1580
p2694
sa(dp2695
g2
(lp2696
V6476292
p2697
asg5
VENGN1620
p2698
sa(dp2699
g2
(lp2700
V6476293
p2701
asg5
VENGN1640
p2702
sa(dp2703
g2
(lp2704
V6476294
p2705
asg5
VENGN1690
p2706
sa(dp2707
g2
(lp2708
V6476295
p2709
asg5
VENGN1710
p2710
sa(dp2711
g2
(lp2712
V6581827
p2713
asg5
VENGN1720
p2714
sa(dp2715
g2
(lp2716
V6476296
p2717
asg5
VENGN1740
p2718
sa(dp2719
g2
(lp2720
V6476297
p2721
asg5
VENGN1760
p2722
sa(dp2723
g2
(lp2724
V6476298
p2725
asg5
VENGN1860
p2726
sa(dp2727
g2
(lp2728
V6476299
p2729
asg5
VENGN1930B
p2730
sa(dp2731
g2
(lp2732
V6476300
p2733
asg5
VENGN1930D
p2734
sa(dp2735
g2
(lp2736
V6476301
p2737
asg5
VENGN1930U
p2738
sa(dp2739
g2
(lp2740
V6476302
p2741
asg5
VENGN1931A
p2742
sa(dp2743
g2
(lp2744
V6476303
p2745
asg5
VENGN2020
p2746
sa(dp2747
g2
(lp2748
V6476304
p2749
asg5
VENGN2120
p2750
sa(dp2751
g2
(lp2752
V6476305
p2753
asg5
VENGN2140
p2754
sa(dp2755
g2
(lp2756
V6476306
p2757
asg5
VENGN2160
p2758
sa(dp2759
g2
(lp2760
V6476307
p2761
asg5
VENGN2220
p2762
sa(dp2763
g2
(lp2764
V6476308
p2765
asg5
VENGN2290
p2766
sa(dp2767
g2
(lp2768
V6476309
p2769
asg5
VENGN2400
p2770
sa(dp2771
g2
(lp2772
V6476310
p2773
asg5
VENGN2420
p2774
sa(dp2775
g2
(lp2776
V6604377
p2777
asg5
VENGN2500
p2778
sa(dp2779
g2
(lp2780
V6476311
p2781
asg5
VENGN2600
p2782
sa(dp2783
g2
(lp2784
V6541598
p2785
asg5
VENGN2760
p2786
sa(dp2787
g2
(lp2788
V6476312
p2789
asg5
VENGN2820
p2790
sa(dp2791
g2
(lp2792
V6581828
p2793
asg5
VENGN2910G
p2794
sa(dp2795
g2
(lp2796
V6581829
p2797
asg5
VENGN2910S
p2798
sa(dp2799
g2
(lp2800
V6476313
p2801
asg5
VENGN2910Z
p2802
sa(dp2803
g2
(lp2804
V6476314
p2805
asg5
VENGN2911F
p2806
sa(dp2807
g2
(lp2808
V6476315
p2809
asg5
VENGN2912E
p2810
sa(dp2811
g2
(lp2812
V6476316
p2813
asg5
VENGN2912P
p2814
sa(dp2815
g2
(lp2816
V6531524
p2817
asg5
VENGN2920B
p2818
sa(dp2819
g2
(lp2820
V6476317
p2821
asg5
VENVS0520
p2822
sa(dp2823
g2
(lp2824
V6476318
p2825
asg5
VENVS1100
p2826
sa(dp2827
g2
(lp2828
V6476319
p2829
asg5
VENVS1355
p2830
sa(dp2831
g2
(lp2832
V6476320
p2833
asg5
VENVS1410
p2834
sa(dp2835
g2
(lp2836
V6476321
p2837
asg5
VENVS1509
p2838
sa(dp2839
g2
(lp2840
V6476322
p2841
asg5
VENVS1555
p2842
sa(dp2843
g2
(lp2844
V6476323
p2845
asg5
VENVS1720
p2846
sa(dp2847
g2
(lp2848
V6476324
p2849
asg5
VENVS1755
p2850
sa(dp2851
g2
(lp2852
V6476325
p2853
asg5
VENVS1929
p2854
sa(dp2855
g2
(lp2856
V6476326
p2857
asg5
VENVS1965
p2858
sa(dp2859
g2
(lp2860
V6476327
p2861
asg5
VENVS2680
p2862
sa(dp2863
g2
(lp2864
V6476328
p2865
asg5
VETHN0500
p2866
sa(dp2867
g2
(lp2868
V6528064
p2869
asg5
VETHN0512
p2870
sa(dp2871
g2
(lp2872
V6476329
p2873
asg5
VETHN0980
p2874
sa(dp2875
g2
(lp2876
V6541599
p2877
aV6581830
p2878
asg5
VETHN1890G
p2879
sa(dp2880
g2
(lp2881
V6528065
p2882
asg5
VETHN1890H
p2883
sa(dp2884
g2
(lp2885
V6528066
p2886
asg5
VETHN1890R
p2887
sa(dp2888
g2
(lp2889
V6687467
p2890
asg5
VETHN1890S
p2891
sa(dp2892
g2
(lp2893
V6528067
p2894
asg5
VETHN1900B
p2895
sa(dp2896
g2
(lp2897
V6476330
p2898
asg5
VETHN1900E
p2899
sa(dp2900
g2
(lp2901
V6476331
p2902
asg5
VETHN1900H
p2903
sa(dp2904
g2
(lp2905
V6688578
p2906
asg5
VETHN1900J
p2907
sa(dp2908
g2
(lp2909
V6476332
p2910
aV6476333
p2911
aV6476334
p2912
aV6476335
p2913
aV6476336
p2914
asg5
VFREN0200
p2915
sa(dp2916
g2
(lp2917
V6476337
p2918
aV6476338
p2919
aV6476339
p2920
asg5
VFREN0400
p2921
sa(dp2922
g2
(lp2923
V6476340
p2924
aV6476341
p2925
aV6476342
p2926
asg5
VFREN0500
p2927
sa(dp2928
g2
(lp2929
V6476343
p2930
aV6476344
p2931
aV6476345
p2932
aV6476346
p2933
asg5
VFREN0600
p2934
sa(dp2935
g2
(lp2936
V6476347
p2937
asg5
VFREN0610
p2938
sa(dp2939
g2
(lp2940
V6476348
p2941
asg5
VFREN0720A
p2942
sa(dp2943
g2
(lp2944
V6476349
p2945
asg5
VFREN0750F
p2946
sa(dp2947
g2
(lp2948
V6604378
p2949
asg5
VFREN1510G
p2950
sa(dp2951
g2
(lp2952
V6476351
p2953
asg5
VFREN1610A
p2954
sa(dp2955
g2
(lp2956
V6477040
p2957
asg5
VFREN1900A
p2958
sa(dp2959
g2
(lp2960
V6476352
p2961
asg5
VFREN2130D
p2962
sa(dp2963
g2
(lp2964
V6476353
p2965
asg5
VFREN2170J
p2966
sa(dp2967
g2
(lp2968
V6589175
p2969
asg5
VFRENSUPP
p2970
sa(dp2971
g2
(lp2972
V6476354
p2973
asg5
VGEOL0010
p2974
sa(dp2975
g2
(lp2976
V6476355
p2977
asg5
VGEOL0070
p2978
sa(dp2979
g2
(lp2980
V6476356
p2981
asg5
VGEOL0230
p2982
sa(dp2983
g2
(lp2984
V6476357
p2985
asg5
VGEOL0240
p2986
sa(dp2987
g2
(lp2988
V6476358
p2989
asg5
VGEOL0810
p2990
sa(dp2991
g2
(lp2992
V6476359
p2993
asg5
VGEOL1100
p2994
sa(dp2995
g2
(lp2996
V6476360
p2997
asg5
VGEOL1150
p2998
sa(dp2999
g2
(lp3000
V6629866
p3001
asg5
VGEOL1310
p3002
sa(dp3003
g2
(lp3004
V6476361
p3005
asg5
VGEOL1330
p3006
sa(dp3007
g2
(lp3008
V6476362
p3009
asg5
VGEOL1350
p3010
sa(dp3011
g2
(lp3012
V6476363
p3013
asg5
VGEOL1420
p3014
sa(dp3015
g2
(lp3016
V6476364
p3017
asg5
VGEOL1450
p3018
sa(dp3019
g2
(lp3020
V6476365
p3021
asg5
VGEOL1510
p3022
sa(dp3023
g2
(lp3024
V6476366
p3025
asg5
VGEOL1560
p3026
sa(dp3027
g2
(lp3028
V6476367
p3029
asg5
VGEOL1660
p3030
sa(dp3031
g2
(lp3032
V6476368
p3033
asg5
VGEOL1960F
p3034
sa(dp3035
g2
(lp3036
V6476369
p3037
asg5
VGEOL2350
p3038
sa(dp3039
g2
(lp3040
V6476370
p3041
asg5
VGEOL2520
p3042
sa(dp3043
g2
(lp3044
V6476371
p3045
asg5
VGEOL2860
p3046
sa(dp3047
g2
(lp3048
V6476372
p3049
asg5
VGEOL2870
p3050
sa(dp3051
g2
(lp3052
V6476373
p3053
asg5
VGEOL2920D
p3054
sa(dp3055
g2
(lp3056
V6476374
p3057
asg5
VGEOL2920E
p3058
sa(dp3059
g2
(lp3060
V6476375
p3061
asg5
VGEOL2920N
p3062
sa(dp3063
g2
(lp3064
V6476376
p3065
asg5
VGEOL2920V
p3066
sa(dp3067
g2
(lp3068
V6476377
p3069
asg5
VGNSS0090C
p3070
sa(dp3071
g2
(lp3072
V6476378
p3073
asg5
VGNSS0120
p3074
sa(dp3075
g2
(lp3076
V6476379
p3077
asg5
VGNSS1960B
p3078
sa(dp3079
g2
(lp3080
V6476380
p3081
asg5
VGNSS1960U
p3082
sa(dp3083
g2
(lp3084
V6476381
p3085
asg5
VGNSS1960V
p3086
sa(dp3087
g2
(lp3088
V6476382
p3089
asg5
VGNSS2020G
p3090
sa(dp3091
g2
(lp3092
V6476383
p3093
asg5
VGREK0110
p3094
sa(dp3095
g2
(lp3096
V6476384
p3097
asg5
VGREK0200
p3098
sa(dp3099
g2
(lp3100
V6476385
p3101
asg5
VGREK0400
p3102
sa(dp3103
g2
(lp3104
V6476386
p3105
asg5
VGREK1010
p3106
sa(dp3107
g2
(lp3108
V6476387
p3109
asg5
VGREK1110B
p3110
sa(dp3111
g2
(lp3112
V6476388
p3113
asg5
VGREK1111A
p3114
sa(dp3115
g2
(lp3116
V6476389
p3117
aV6476390
p3118
aV6476391
p3119
asg5
VGRMN0200
p3120
sa(dp3121
g2
(lp3122
V6476392
p3123
aV6476393
p3124
asg5
VGRMN0400
p3125
sa(dp3126
g2
(lp3127
V6476394
p3128
asg5
VGRMN0600B
p3129
sa(dp3130
g2
(lp3131
V6476395
p3132
asg5
VGRMN0750E
p3133
sa(dp3134
g2
(lp3135
V6476396
p3136
asg5
VGRMN1200B
p3137
sa(dp3138
g2
(lp3139
V6476397
p3140
asg5
VGRMN1440P
p3141
sa(dp3142
g2
(lp3143
V6486528
p3144
asg5
VGRMN1440Q
p3145
sa(dp3146
g2
(lp3147
V6476398
p3148
asg5
VGRMN1900F
p3149
sa(dp3150
g2
(lp3151
V6476399
p3152
asg5
VGRMN2320E
p3153
sa(dp3154
g2
(lp3155
V6476400
p3156
asg5
VGRMN2660R
p3157
sa(dp3158
g2
(lp3159
V6486529
p3160
asg5
VGRMN2660T
p3161
sa(dp3162
g2
(lp3163
V6476401
p3164
asg5
VHIAA0010
p3165
sa(dp3166
g2
(lp3167
V6604379
p3168
asg5
VHIAA0030
p3169
sa(dp3170
g2
(lp3171
V6581831
p3172
asg5
VHIAA0090
p3173
sa(dp3174
g2
(lp3175
V6531525
p3176
asg5
VHIAA0100
p3177
sa(dp3178
g2
(lp3179
V6476402
p3180
asg5
VHIAA0630
p3181
sa(dp3182
g2
(lp3183
V6604380
p3184
asg5
VHIAA0810
p3185
sa(dp3186
g2
(lp3187
V6581832
p3188
asg5
VHIAA1040C
p3189
sa(dp3190
g2
(lp3191
V6624160
p3192
asg5
VHIAA1050
p3193
sa(dp3194
g2
(lp3195
V6581833
p3196
asg5
VHIAA1190
p3197
sa(dp3198
g2
(lp3199
V6477041
p3200
asg5
VHIAA1200C
p3201
sa(dp3202
g2
(lp3203
V6476403
p3204
asg5
VHIAA1410D
p3205
sa(dp3206
g2
(lp3207
V6476404
p3208
asg5
VHIAA1560A
p3209
sa(dp3210
g2
(lp3211
V6476405
p3212
asg5
VHIAA1600A
p3213
sa(dp3214
g2
(lp3215
V6581834
p3216
asg5
VHIAA1930
p3217
sa(dp3218
g2
(lp3219
V6476406
p3220
asg5
VHIAA2440D
p3221
sa(dp3222
g2
(lp3223
V6476407
p3224
asg5
VHIAA2550C
p3225
sa(dp3226
g2
(lp3227
V6624161
p3228
asg5
VHIAA2870H
p3229
sa(dp3230
g2
(lp3231
V6476408
p3232
aV6476409
p3233
aV6476410
p3234
aV6476411
p3235
asg5
VHISP0200
p3236
sa(dp3237
g2
(lp3238
V6476412
p3239
aV6476413
p3240
asg5
VHISP0300
p3241
sa(dp3242
g2
(lp3243
V6476414
p3244
aV6476415
p3245
aV6476416
p3246
aV6476417
p3247
asg5
VHISP0400
p3248
sa(dp3249
g2
(lp3250
V6476418
p3251
aV6476419
p3252
aV6476420
p3253
asg5
VHISP0500
p3254
sa(dp3255
g2
(lp3256
V6476421
p3257
aV6476422
p3258
aV6476423
p3259
aV6476424
p3260
aV6476425
p3261
asg5
VHISP0600
p3262
sa(dp3263
g2
(lp3264
V6624162
p3265
aV6660087
p3266
asg5
VHISP0710A
p3267
sa(dp3268
g2
(lp3269
V6476426
p3270
asg5
VHISP0730
p3271
sa(dp3272
g2
(lp3273
V6476427
p3274
asg5
VHISP0740
p3275
sa(dp3276
g2
(lp3277
V6476428
p3278
asg5
VHISP0750B
p3279
sa(dp3280
g2
(lp3281
V6476429
p3282
asg5
VHISP1260B
p3283
sa(dp3284
g2
(lp3285
V6624163
p3286
asg5
VHISP1260E
p3287
sa(dp3288
g2
(lp3289
V6581849
p3290
aV6660555
p3291
asg5
VHISP1290U
p3292
sa(dp3293
g2
(lp3294
V6476431
p3295
asg5
VHISP1370B
p3296
sa(dp3297
g2
(lp3298
V6685617
p3299
asg5
VHISP1700A
p3300
sa(dp3301
g2
(lp3302
V6476433
p3303
asg5
VHISP2160J
p3304
sa(dp3305
g2
(lp3306
V6591068
p3307
asg5
VHISP2160M
p3308
sa(dp3309
g2
(lp3310
V6476434
p3311
asg5
VHISP2250E
p3312
sa(dp3313
g2
(lp3314
V6624164
p3315
asg5
VHISP2250L
p3316
sa(dp3317
g2
(lp3318
V6476435
p3319
asg5
VHISP2350D
p3320
sa(dp3321
g2
(lp3322
V6476436
p3323
asg5
VHISP2350E
p3324
sa(dp3325
g2
(lp3326
V6476437
p3327
asg5
VHIST0150B
p3328
sa(dp3329
g2
(lp3330
V6476438
p3331
asg5
VHIST0520
p3332
sa(dp3333
g2
(lp3334
V6476439
p3335
asg5
VHIST0970S
p3336
sa(dp3337
g2
(lp3338
V6476440
p3339
asg5
VHIST0980B
p3340
sa(dp3341
g2
(lp3342
V6476441
p3343
asg5
VHIST1000A
p3344
sa(dp3345
g2
(lp3346
V6476442
p3347
asg5
VHIST1210
p3348
sa(dp3349
g2
(lp3350
V6476443
p3351
asg5
VHIST1290
p3352
sa(dp3353
g2
(lp3354
V6476444
p3355
asg5
VHIST1301
p3356
sa(dp3357
g2
(lp3358
V6476445
p3359
asg5
VHIST1330
p3360
sa(dp3361
g2
(lp3362
V6476446
p3363
asg5
VHIST1361
p3364
sa(dp3365
g2
(lp3366
V6528068
p3367
asg5
VHIST1455
p3368
sa(dp3369
g2
(lp3370
V6476447
p3371
asg5
VHIST1493
p3372
sa(dp3373
g2
(lp3374
V6476448
p3375
asg5
VHIST1496
p3376
sa(dp3377
g2
(lp3378
V6476449
p3379
asg5
VHIST1503
p3380
sa(dp3381
g2
(lp3382
V6476450
p3383
asg5
VHIST1540
p3384
sa(dp3385
g2
(lp3386
V6476452
p3387
asg5
VHIST1630
p3388
sa(dp3389
g2
(lp3390
V6476453
p3391
asg5
VHIST1701
p3392
sa(dp3393
g2
(lp3394
V6476454
p3395
asg5
VHIST1770
p3396
sa(dp3397
g2
(lp3398
V6528069
p3399
asg5
VHIST1781
p3400
sa(dp3401
g2
(lp3402
V6528070
p3403
asg5
VHIST1783
p3404
sa(dp3405
g2
(lp3406
V6476455
p3407
asg5
VHIST1801
p3408
sa(dp3409
g2
(lp3410
V6476456
p3411
asg5
VHIST1900
p3412
sa(dp3413
g2
(lp3414
V6476457
p3415
asg5
VHIST1951
p3416
sa(dp3417
g2
(lp3418
V6476458
p3419
asg5
VHIST1970Y
p3420
sa(dp3421
g2
(lp3422
V6476459
p3423
asg5
VHIST1972R
p3424
sa(dp3425
g2
(lp3426
V6476460
p3427
asg5
VHIST1973J
p3428
sa(dp3429
g2
(lp3430
V6476461
p3431
asg5
VHIST1973P
p3432
sa(dp3433
g2
(lp3434
V6476462
p3435
asg5
VHIST1973T
p3436
sa(dp3437
g2
(lp3438
V6476463
p3439
asg5
VHIST1976M
p3440
sa(dp3441
g2
(lp3442
V6476464
p3443
asg5
VHIST1976N
p3444
sa(dp3445
g2
(lp3446
V6476465
p3447
asg5
VHIST1976R
p3448
sa(dp3449
g2
(lp3450
V6476466
p3451
asg5
VHIST1976T
p3452
sa(dp3453
g2
(lp3454
V6476467
p3455
asg5
VHIST1977Q
p3456
sa(dp3457
g2
(lp3458
V6477042
p3459
asg5
VHIST1978A
p3460
sa(dp3461
g2
(lp3462
V6486530
p3463
asg5
VHIST1978D
p3464
sa(dp3465
g2
(lp3466
V6476468
p3467
asg5
VHIST1978F
p3468
sa(dp3469
g2
(lp3470
V6476469
p3471
asg5
VHIST1978G
p3472
sa(dp3473
g2
(lp3474
V6476470
p3475
asg5
VHIST1978H
p3476
sa(dp3477
g2
(lp3478
V6476471
p3479
asg5
VHIST1978O
p3480
sa(dp3481
g2
(lp3482
V6476472
p3483
asg5
VHIST1978U
p3484
sa(dp3485
g2
(lp3486
V6486531
p3487
asg5
VHIST1978W
p3488
sa(dp3489
g2
(lp3490
V6476473
p3491
asg5
VHIST1979B
p3492
sa(dp3493
g2
(lp3494
V6528071
p3495
asg5
VHIST1979C
p3496
sa(dp3497
g2
(lp3498
V6685618
p3499
asg5
VHIST1979G
p3500
sa(dp3501
g2
(lp3502
V6476474
p3503
aV6476475
p3504
asg5
VHIST1992
p3505
sa(dp3506
g2
(lp3507
V6476476
p3508
asg5
VHIST1994
p3509
sa(dp3510
g2
(lp3511
V6476477
p3512
asg5
VHIST2950
p3513
sa(dp3514
g2
(lp3515
V6476478
p3516
asg5
VHIST2960
p3517
sa(dp3518
g2
(lp3519
V6476479
p3520
asg5
VHIST2970C
p3521
sa(dp3522
g2
(lp3523
V6476480
p3524
asg5
VHIST2971L
p3525
sa(dp3526
g2
(lp3527
V6486532
p3528
asg5
VHIST2981G
p3529
sa(dp3530
g2
(lp3531
V6476481
p3532
asg5
VHMAN1970K
p3533
sa(dp3534
g2
(lp3535
V6476482
p3536
asg5
VHMAN1970Q
p3537
sa(dp3538
g2
(lp3539
V6591069
p3540
asg5
VHMAN1971C
p3541
sa(dp3542
g2
(lp3543
V6581835
p3544
asg5
VHMAN1971D
p3545
sa(dp3546
g2
(lp3547
V6476483
p3548
asg5
VHMAN2970B
p3549
sa(dp3550
g2
(lp3551
V6476484
p3552
asg5
VHMAN2970M
p3553
sa(dp3554
g2
(lp3555
V6476485
p3556
asg5
VHNDI0200
p3557
sa(dp3558
g2
(lp3559
V6476486
p3560
asg5
VHNDI0400
p3561
sa(dp3562
g2
(lp3563
V6476487
p3564
asg5
VHNDI1080
p3565
sa(dp3566
g2
(lp3567
V6591070
p3568
asg5
VINTL1442
p3569
sa(dp3570
g2
(lp3571
V6541600
p3572
asg5
VINTL1800V
p3573
sa(dp3574
g2
(lp3575
V6604382
p3576
asg5
VINTL1802J
p3577
sa(dp3578
g2
(lp3579
V6624165
p3580
asg5
VINTL1802L
p3581
sa(dp3582
g2
(lp3583
V6604383
p3584
asg5
VINTL1802M
p3585
sa(dp3586
g2
(lp3587
V6624166
p3588
asg5
VINTL1802N
p3589
sa(dp3590
g2
(lp3591
V6581836
p3592
asg5
VITAL0110
p3593
sa(dp3594
g2
(lp3595
V6476488
p3596
aV6476489
p3597
aV6476490
p3598
aV6476491
p3599
asg5
VITAL0200
p3600
sa(dp3601
g2
(lp3602
V6476492
p3603
aV6476493
p3604
asg5
VITAL0400
p3605
sa(dp3606
g2
(lp3607
V6476494
p3608
asg5
VITAL0600
p3609
sa(dp3610
g2
(lp3611
V6476495
p3612
asg5
VITAL0981
p3613
sa(dp3614
g2
(lp3615
V6476496
p3616
asg5
VITAL1020
p3617
sa(dp3618
g2
(lp3619
V6476497
p3620
asg5
VITAL1435
p3621
sa(dp3622
g2
(lp3623
V6476498
p3624
asg5
VITAL1590
p3625
sa(dp3626
g2
(lp3627
V6476499
p3628
asg5
VITAL1620
p3629
sa(dp3630
g2
(lp3631
V6476500
p3632
asg5
VITAL2550
p3633
sa(dp3634
g2
(lp3635
V6476501
p3636
asg5
VITAL2820
p3637
sa(dp3638
g2
(lp3639
V6476502
p3640
asg5
VITAL2900
p3641
sa(dp3642
g2
(lp3643
V6680128
p3644
asg5
VJAPN0100
p3645
sa(dp3646
g2
(lp3647
V6476503
p3648
aV6476504
p3649
aV6476505
p3650
asg5
VJAPN0200
p3651
sa(dp3652
g2
(lp3653
V6476506
p3654
aV6476507
p3655
asg5
VJAPN0400
p3656
sa(dp3657
g2
(lp3658
V6476508
p3659
asg5
VJAPN0600
p3660
sa(dp3661
g2
(lp3662
V6476509
p3663
asg5
VJAPN0800
p3664
sa(dp3665
g2
(lp3666
V6476510
p3667
asg5
VJAPN0910B
p3668
sa(dp3669
g2
(lp3670
V6476511
p3671
asg5
VJUDS0090B
p3672
sa(dp3673
g2
(lp3674
V6476512
p3675
asg5
VJUDS0200
p3676
sa(dp3677
g2
(lp3678
V6476513
p3679
asg5
VJUDS0400
p3680
sa(dp3681
g2
(lp3682
V6476514
p3683
asg5
VJUDS0670
p3684
sa(dp3685
g2
(lp3686
V6476515
p3687
asg5
VJUDS1610
p3688
sa(dp3689
g2
(lp3690
V6476516
p3691
asg5
VJUDS1630
p3692
sa(dp3693
g2
(lp3694
V6476517
p3695
asg5
VJUDS1710
p3696
sa(dp3697
g2
(lp3698
V6476518
p3699
asg5
VJUDS1711
p3700
sa(dp3701
g2
(lp3702
V6476519
p3703
asg5
VJUDS1713
p3704
sa(dp3705
g2
(lp3706
V6476520
p3707
asg5
VJUDS1740
p3708
sa(dp3709
g2
(lp3710
V6476521
p3711
asg5
VJUDS1810
p3712
sa(dp3713
g2
(lp3714
V6476522
p3715
asg5
VJUDS1820
p3716
sa(dp3717
g2
(lp3718
V6476523
p3719
aV6476524
p3720
asg5
VKREA0200
p3721
sa(dp3722
g2
(lp3723
V6476525
p3724
asg5
VKREA0400
p3725
sa(dp3726
g2
(lp3727
V6486533
p3728
asg5
VKREA0600
p3729
sa(dp3730
g2
(lp3731
V6591071
p3732
asg5
VLAST1510N
p3733
sa(dp3734
g2
(lp3735
V6476526
p3736
asg5
VLATN0110
p3737
sa(dp3738
g2
(lp3739
V6476527
p3740
asg5
VLATN0200
p3741
sa(dp3742
g2
(lp3743
V6476528
p3744
asg5
VLATN0400
p3745
sa(dp3746
g2
(lp3747
V6476529
p3748
asg5
VLATN1040B
p3749
sa(dp3750
g2
(lp3751
V6476530
p3752
asg5
VLATN1060F
p3753
sa(dp3754
g2
(lp3755
V6476531
p3756
asg5
VLATN1120D
p3757
sa(dp3758
g2
(lp3759
V6476532
p3760
asg5
VLATN1810
p3761
sa(dp3762
g2
(lp3763
V6476533
p3764
asg5
VLATN2120D
p3765
sa(dp3766
g2
(lp3767
V6476534
p3768
aV6476535
p3769
aV6476536
p3770
aV6476537
p3771
asg5
VLITR0110A
p3772
sa(dp3773
g2
(lp3774
V6476538
p3775
aV6476539
p3776
aV6476540
p3777
aV6476541
p3778
aV6591072
p3779
asg5
VLITR0110B
p3780
sa(dp3781
g2
(lp3782
V6476542
p3783
asg5
VLITR0110D
p3784
sa(dp3785
g2
(lp3786
V6476543
p3787
asg5
VLITR0110E
p3788
sa(dp3789
g2
(lp3790
V6476544
p3791
aV6476545
p3792
asg5
VLITR0210A
p3793
sa(dp3794
g2
(lp3795
V6476546
p3796
asg5
VLITR0210B
p3797
sa(dp3798
g2
(lp3799
V6476547
p3800
asg5
VLITR0210D
p3801
sa(dp3802
g2
(lp3803
V6476548
p3804
asg5
VLITR0210E
p3805
sa(dp3806
g2
(lp3807
V6476549
p3808
asg5
VLITR0710
p3809
sa(dp3810
g2
(lp3811
V6476550
p3812
aV6476551
p3813
asg5
VLITR1010A
p3814
sa(dp3815
g2
(lp3816
V6476552
p3817
aV6591073
p3818
asg5
VLITR1010B
p3819
sa(dp3820
g2
(lp3821
V6476553
p3822
aV6604384
p3823
asg5
VLITR1010F
p3824
sa(dp3825
g2
(lp3826
V6476554
p3827
asg5
VLITR1010G
p3828
sa(dp3829
g2
(lp3830
V6476555
p3831
asg5
VLITR1110R
p3832
sa(dp3833
g2
(lp3834
V6476556
p3835
asg5
VLITR1150M
p3836
sa(dp3837
g2
(lp3838
V6705023
p3839
asg5
VLITR1150N
p3840
sa(dp3841
g2
(lp3842
V6476557
p3843
asg5
VLITR1150X
p3844
sa(dp3845
g2
(lp3846
V6705024
p3847
asg5
VLITR1150Y
p3848
sa(dp3849
g2
(lp3850
V6476558
p3851
asg5
VLITR1200
p3852
sa(dp3853
g2
(lp3854
V6476559
p3855
asg5
VLITR1220E
p3856
sa(dp3857
g2
(lp3858
V6476560
p3859
asg5
VLITR1230E
p3860
sa(dp3861
g2
(lp3862
V6476561
p3863
asg5
VLITR1230I
p3864
sa(dp3865
g2
(lp3866
V6476562
p3867
asg5
VLITR1230J
p3868
sa(dp3869
g2
(lp3870
V6476563
p3871
asg5
VLITR1410A
p3872
sa(dp3873
g2
(lp3874
V6476564
p3875
asg5
VLITR2010A
p3876
sa(dp3877
g2
(lp3878
V6476565
p3879
asg5
VLITR2010B
p3880
sa(dp3881
g2
(lp3882
V6690899
p3883
asg5
VLITR2110G
p3884
sa(dp3885
g2
(lp3886
V6624167
p3887
asg5
VLITR2110H
p3888
sa(dp3889
g2
(lp3890
V6476566
p3891
asg5
VMATH0060
p3892
sa(dp3893
g2
(lp3894
V6476567
p3895
aV6476568
p3896
asg5
VMATH0090
p3897
sa(dp3898
g2
(lp3899
V6476569
p3900
aV6476570
p3901
aV6476571
p3902
aV6476572
p3903
asg5
VMATH0100
p3904
sa(dp3905
g2
(lp3906
V6476573
p3907
aV6476574
p3908
aV6476575
p3909
asg5
VMATH0180
p3910
sa(dp3911
g2
(lp3912
V6476576
p3913
aV6476577
p3914
aV6476578
p3915
asg5
VMATH0200
p3916
sa(dp3917
g2
(lp3918
V6476579
p3919
asg5
VMATH0420
p3920
sa(dp3921
g2
(lp3922
V6476580
p3923
aV6476581
p3924
aV6476582
p3925
aV6476583
p3926
asg5
VMATH0520
p3927
sa(dp3928
g2
(lp3929
V6476584
p3930
aV6476585
p3931
asg5
VMATH0540
p3932
sa(dp3933
g2
(lp3934
V6476586
p3935
asg5
VMATH1010
p3936
sa(dp3937
g2
(lp3938
V6476587
p3939
asg5
VMATH1040
p3940
sa(dp3941
g2
(lp3942
V6476588
p3943
asg5
VMATH1120
p3944
sa(dp3945
g2
(lp3946
V6476589
p3947
asg5
VMATH1140
p3948
sa(dp3949
g2
(lp3950
V6476590
p3951
asg5
VMATH1530
p3952
sa(dp3953
g2
(lp3954
V6476591
p3955
asg5
VMATH1540
p3956
sa(dp3957
g2
(lp3958
V6476592
p3959
asg5
VMATH1560
p3960
sa(dp3961
g2
(lp3962
V6476593
p3963
asg5
VMATH1620
p3964
sa(dp3965
g2
(lp3966
V6476594
p3967
asg5
VMATH2060
p3968
sa(dp3969
g2
(lp3970
V6476595
p3971
asg5
VMATH2110
p3972
sa(dp3973
g2
(lp3974
V6476596
p3975
asg5
VMATH2220
p3976
sa(dp3977
g2
(lp3978
V6476597
p3979
asg5
VMATH2260
p3980
sa(dp3981
g2
(lp3982
V6476598
p3983
asg5
VMATH2420
p3984
sa(dp3985
g2
(lp3986
V6624168
p3987
asg5
VMATH2520
p3988
sa(dp3989
g2
(lp3990
V6476599
p3991
asg5
VMATH2540
p3992
sa(dp3993
g2
(lp3994
V6476600
p3995
asg5
VMATH2720E
p3996
sa(dp3997
g2
(lp3998
V6660088
p3999
asg5
VMATH2720I
p4000
sa(dp4001
g2
(lp4002
V6476601
p4003
asg5
VMCM0240
p4004
sa(dp4005
g2
(lp4006
V6476602
p4007
asg5
VMCM0260
p4008
sa(dp4009
g2
(lp4010
V6476603
p4011
asg5
VMCM0710
p4012
sa(dp4013
g2
(lp4014
V6476604
p4015
asg5
VMCM0800J
p4016
sa(dp4017
g2
(lp4018
V6476606
p4019
asg5
VMCM0901L
p4020
sa(dp4021
g2
(lp4022
V6476607
p4023
asg5
VMCM1202J
p4024
sa(dp4025
g2
(lp4026
V6591074
p4027
asg5
VMCM1202S
p4028
sa(dp4029
g2
(lp4030
V6551399
p4031
asg5
VMCM1202U
p4032
sa(dp4033
g2
(lp4034
V6476608
p4035
asg5
VMCM1500O
p4036
sa(dp4037
g2
(lp4038
V6476609
p4039
asg5
VMCM1503E
p4040
sa(dp4041
g2
(lp4042
V6476610
p4043
asg5
VMCM1700U
p4044
sa(dp4045
g2
(lp4046
V6581837
p4047
asg5
VMCM1700V
p4048
sa(dp4049
g2
(lp4050
V6581838
p4051
asg5
VMCM2100J
p4052
sa(dp4053
g2
(lp4054
V6476611
p4055
asg5
VMCM2110J
p4056
sa(dp4057
g2
(lp4058
V6476612
p4059
asg5
VMCM2310H
p4060
sa(dp4061
g2
(lp4062
V6662821
p4063
asg5
VMES1996A
p4064
sa(dp4065
g2
(lp4066
V6660582
p4067
asg5
VMES1997A
p4068
sa(dp4069
g2
(lp4070
V6662822
p4071
asg5
VMES1998
p4072
sa(dp4073
g2
(lp4074
V6662823
p4075
asg5
VMES1999A
p4076
sa(dp4077
g2
(lp4078
V6476613
p4079
asg5
VMGRK0200
p4080
sa(dp4081
g2
(lp4082
V6476614
p4083
asg5
VMGRK0400
p4084
sa(dp4085
g2
(lp4086
V6476615
p4087
asg5
VMGRK0600
p4088
sa(dp4089
g2
(lp4090
V6476616
p4091
asg5
VMUSC0043
p4092
sa(dp4093
g2
(lp4094
V6476617
p4095
asg5
VMUSC0052
p4096
sa(dp4097
g2
(lp4098
V6476618
p4099
asg5
VMUSC0075
p4100
sa(dp4101
g2
(lp4102
V6476619
p4103
asg5
VMUSC0210E
p4104
sa(dp4105
g2
(lp4106
V6476620
p4107
asg5
VMUSC0221
p4108
sa(dp4109
g2
(lp4110
V6476621
p4111
asg5
VMUSC0400
p4112
sa(dp4113
g2
(lp4114
V6476622
p4115
aV6476623
p4116
asg5
VMUSC0560
p4117
sa(dp4118
g2
(lp4119
V6476624
p4120
asg5
VMUSC0601
p4121
sa(dp4122
g2
(lp4123
V6476625
p4124
asg5
VMUSC0611
p4125
sa(dp4126
g2
(lp4127
V6476626
p4128
aV6476627
p4129
aV6476628
p4130
aV6476629
p4131
asg5
VMUSC0621
p4132
sa(dp4133
g2
(lp4134
V6476630
p4135
aV6476631
p4136
aV6476632
p4137
aV6476633
p4138
asg5
VMUSC0631
p4139
sa(dp4140
g2
(lp4141
V6476634
p4142
asg5
VMUSC0641
p4143
sa(dp4144
g2
(lp4145
V6476635
p4146
asg5
VMUSC0651
p4147
sa(dp4148
g2
(lp4149
V6476636
p4150
asg5
VMUSC0661
p4151
sa(dp4152
g2
(lp4153
V6476637
p4154
asg5
VMUSC0671
p4155
sa(dp4156
g2
(lp4157
V6476638
p4158
asg5
VMUSC0681
p4159
sa(dp4160
g2
(lp4161
V6476639
p4162
asg5
VMUSC0920
p4163
sa(dp4164
g2
(lp4165
V6476640
p4166
asg5
VMUSC1011
p4167
sa(dp4168
g2
(lp4169
V6541601
p4170
asg5
VMUSC1040
p4171
sa(dp4172
g2
(lp4173
V6476641
p4174
asg5
VMUSC1110
p4175
sa(dp4176
g2
(lp4177
V6476642
p4178
asg5
VMUSC1120
p4179
sa(dp4180
g2
(lp4181
V6476643
p4182
asg5
VMUSC1200
p4183
sa(dp4184
g2
(lp4185
V6476644
p4186
asg5
VMUSC1240B
p4187
sa(dp4188
g2
(lp4189
V6476645
p4190
asg5
VMUSC1500A
p4191
sa(dp4192
g2
(lp4193
V6476646
p4194
asg5
VMUSC1690C
p4195
sa(dp4196
g2
(lp4197
V6476647
p4198
asg5
VMUSC1920
p4199
sa(dp4200
g2
(lp4201
V6476648
p4202
asg5
VMUSC1930
p4203
sa(dp4204
g2
(lp4205
V6476649
p4206
asg5
VMUSC1961
p4207
sa(dp4208
g2
(lp4209
V6476650
p4210
asg5
VMUSC2080E
p4211
sa(dp4212
g2
(lp4213
V6476651
p4214
asg5
VMUSC2090B
p4215
sa(dp4216
g2
(lp4217
V6476652
p4218
asg5
VMUSC2220
p4219
sa(dp4220
g2
(lp4221
V6476653
p4222
asg5
VMUSC2280
p4223
sa(dp4224
g2
(lp4225
V6476654
p4226
asg5
VNEUR0650
p4227
sa(dp4228
g2
(lp4229
V6476655
p4230
asg5
VNEUR0700
p4231
sa(dp4232
g2
(lp4233
V6476656
p4234
asg5
VNEUR1020
p4235
sa(dp4236
g2
(lp4237
V6476657
p4238
aV6531526
p4239
asg5
VNEUR1520
p4240
sa(dp4241
g2
(lp4242
V6476658
p4243
asg5
VNEUR1540
p4244
sa(dp4245
g2
(lp4246
V6476659
p4247
asg5
VNEUR1600
p4248
sa(dp4249
g2
(lp4250
V6476660
p4251
asg5
VNEUR1680
p4252
sa(dp4253
g2
(lp4254
V6476661
p4255
asg5
VNEUR1740
p4256
sa(dp4257
g2
(lp4258
V6476662
p4259
asg5
VNEUR1940B
p4260
sa(dp4261
g2
(lp4262
V6476663
p4263
asg5
VNEUR1940E
p4264
sa(dp4265
g2
(lp4266
V6476664
p4267
asg5
VNEUR1940G
p4268
sa(dp4269
g2
(lp4270
V6629867
p4271
asg5
VNEUR2020
p4272
sa(dp4273
g2
(lp4274
V6476665
p4275
asg5
VNEUR2040
p4276
sa(dp4277
g2
(lp4278
V6476666
p4279
asg5
VNEUR2060
p4280
sa(dp4281
g2
(lp4282
V6476667
p4283
asg5
VNEUR2120
p4284
sa(dp4285
g2
(lp4286
V6629868
p4287
asg5
VNEUR2930E
p4288
sa(dp4289
g2
(lp4290
V6476668
p4291
asg5
VPHIL0010
p4292
sa(dp4293
g2
(lp4294
V6476669
p4295
asg5
VPHIL0060
p4296
sa(dp4297
g2
(lp4298
V6541602
p4299
asg5
VPHIL0100
p4300
sa(dp4301
g2
(lp4302
V6534125
p4303
asg5
VPHIL0190
p4304
sa(dp4305
g2
(lp4306
V6476672
p4307
asg5
VPHIL0250
p4308
sa(dp4309
g2
(lp4310
V6476673
p4311
asg5
VPHIL0300A
p4312
sa(dp4313
g2
(lp4314
V6476674
p4315
asg5
VPHIL0360
p4316
sa(dp4317
g2
(lp4318
V6476675
p4319
asg5
VPHIL0880
p4320
sa(dp4321
g2
(lp4322
V6541603
p4323
asg5
VPHIL0990T
p4324
sa(dp4325
g2
(lp4326
V6476676
p4327
asg5
VPHIL1100C
p4328
sa(dp4329
g2
(lp4330
V6476677
p4331
asg5
VPHIL1260
p4332
sa(dp4333
g2
(lp4334
V6476678
p4335
asg5
VPHIL1520
p4336
sa(dp4337
g2
(lp4338
V6476679
p4339
asg5
VPHIL1590
p4340
sa(dp4341
g2
(lp4342
V6476680
p4343
asg5
VPHIL1600
p4344
sa(dp4345
g2
(lp4346
V6476681
p4347
asg5
VPHIL1650
p4348
sa(dp4349
g2
(lp4350
V6581839
p4351
asg5
VPHIL1810C
p4352
sa(dp4353
g2
(lp4354
V6476682
p4355
asg5
VPHIL1880
p4356
sa(dp4357
g2
(lp4358
V6476683
p4359
asg5
VPHIL2010A
p4360
sa(dp4361
g2
(lp4362
V6476684
p4363
asg5
VPHIL2040J
p4364
sa(dp4365
g2
(lp4366
V6476685
p4367
asg5
VPHIL2060B
p4368
sa(dp4369
g2
(lp4370
V6476686
p4371
asg5
VPHIL2100J
p4372
sa(dp4373
g2
(lp4374
V6476687
p4375
asg5
VPHIL2160L
p4376
sa(dp4377
g2
(lp4378
V6476688
p4379
asg5
VPHIL2200
p4380
sa(dp4381
g2
(lp4382
V6476689
p4383
asg5
VPHIL2800
p4384
sa(dp4385
g2
(lp4386
V6476690
p4387
asg5
VPHP0030
p4388
sa(dp4389
g2
(lp4390
V6476691
p4391
asg5
VPHP0310
p4392
sa(dp4393
g2
(lp4394
V6476692
p4395
asg5
VPHP1100
p4396
sa(dp4397
g2
(lp4398
V6476693
p4399
asg5
VPHP1400
p4400
sa(dp4401
g2
(lp4402
V6476694
p4403
asg5
VPHP1500
p4404
sa(dp4405
g2
(lp4406
V6476695
p4407
asg5
VPHP1520
p4408
sa(dp4409
g2
(lp4410
V6476696
p4411
asg5
VPHP1530
p4412
sa(dp4413
g2
(lp4414
V6476697
p4415
asg5
VPHP1600
p4416
sa(dp4417
g2
(lp4418
V6476698
p4419
asg5
VPHP1680K
p4420
sa(dp4421
g2
(lp4422
V6476699
p4423
asg5
VPHP1680T
p4424
sa(dp4425
g2
(lp4426
V6705025
p4427
asg5
VPHP1800
p4428
sa(dp4429
g2
(lp4430
V6591075
p4431
asg5
VPHP1920
p4432
sa(dp4433
g2
(lp4434
V6591169
p4435
aV6604385
p4436
asg5
VPHP1964
p4437
sa(dp4438
g2
(lp4439
V6476700
p4440
asg5
VPHP2040
p4441
sa(dp4442
g2
(lp4443
V6476701
p4444
asg5
VPHP2060
p4445
sa(dp4446
g2
(lp4447
V6476702
p4448
asg5
VPHP2070
p4449
sa(dp4450
g2
(lp4451
V6476703
p4452
asg5
VPHP2090
p4453
sa(dp4454
g2
(lp4455
V6476704
p4456
asg5
VPHP2130
p4457
sa(dp4458
g2
(lp4459
V6476705
p4460
asg5
VPHP2180
p4461
sa(dp4462
g2
(lp4463
V6476706
p4464
asg5
VPHP2200
p4465
sa(dp4466
g2
(lp4467
V6476707
p4468
asg5
VPHP2220E
p4469
sa(dp4470
g2
(lp4471
V6591076
p4472
asg5
VPHP2230
p4473
sa(dp4474
g2
(lp4475
V6706122
p4476
asg5
VPHP2260
p4477
sa(dp4478
g2
(lp4479
V6604386
p4480
asg5
VPHP2330
p4481
sa(dp4482
g2
(lp4483
V6476708
p4484
asg5
VPHP2350
p4485
sa(dp4486
g2
(lp4487
V6476709
p4488
asg5
VPHP2360
p4489
sa(dp4490
g2
(lp4491
V6476710
p4492
asg5
VPHP2380
p4493
sa(dp4494
g2
(lp4495
V6476711
p4496
asg5
VPHP2410E
p4497
sa(dp4498
g2
(lp4499
V6581840
p4500
asg5
VPHP2415
p4501
sa(dp4502
g2
(lp4503
V6476712
p4504
asg5
VPHP2430
p4505
sa(dp4506
g2
(lp4507
V6476713
p4508
asg5
VPHP2480
p4509
sa(dp4510
g2
(lp4511
V6476714
p4512
asg5
VPHP2490
p4513
sa(dp4514
g2
(lp4515
V6476715
p4516
asg5
VPHP2508
p4517
sa(dp4518
g2
(lp4519
V6476716
p4520
asg5
VPHP2511
p4521
sa(dp4522
g2
(lp4523
V6476717
p4524
asg5
VPHP2540
p4525
sa(dp4526
g2
(lp4527
V6476718
p4528
asg5
VPHP2580
p4529
sa(dp4530
g2
(lp4531
V6476719
p4532
asg5
VPHP2602
p4533
sa(dp4534
g2
(lp4535
V6476720
p4536
asg5
VPHP2604
p4537
sa(dp4538
g2
(lp4539
V6476721
p4540
asg5
VPHP2620
p4541
sa(dp4542
g2
(lp4543
V6629869
p4544
asg5
VPHP2690F
p4545
sa(dp4546
g2
(lp4547
V6476722
p4548
asg5
VPHP2950
p4549
sa(dp4550
g2
(lp4551
V6476723
p4552
aV6476724
p4553
asg5
VPHYS0040
p4554
sa(dp4555
g2
(lp4556
V6476725
p4557
asg5
VPHYS0060
p4558
sa(dp4559
g2
(lp4560
V6476726
p4561
asg5
VPHYS0100
p4562
sa(dp4563
g2
(lp4564
V6476727
p4565
asg5
VPHYS0112
p4566
sa(dp4567
g2
(lp4568
V6476728
p4569
asg5
VPHYS0114
p4570
sa(dp4571
g2
(lp4572
V6476729
p4573
asg5
VPHYS0160
p4574
sa(dp4575
g2
(lp4576
V6476730
p4577
asg5
VPHYS0220
p4578
sa(dp4579
g2
(lp4580
V6476731
p4581
asg5
VPHYS0500
p4582
sa(dp4583
g2
(lp4584
V6476732
p4585
asg5
VPHYS0560
p4586
sa(dp4587
g2
(lp4588
V6476733
p4589
asg5
VPHYS1170
p4590
sa(dp4591
g2
(lp4592
V6476734
p4593
asg5
VPHYS1250
p4594
sa(dp4595
g2
(lp4596
V6476735
p4597
asg5
VPHYS1420
p4598
sa(dp4599
g2
(lp4600
V6476736
p4601
asg5
VPHYS1560
p4602
sa(dp4603
g2
(lp4604
V6476737
p4605
asg5
VPHYS1600
p4606
sa(dp4607
g2
(lp4608
V6476738
p4609
asg5
VPHYS2040
p4610
sa(dp4611
g2
(lp4612
V6476739
p4613
asg5
VPHYS2060
p4614
sa(dp4615
g2
(lp4616
V6476740
p4617
asg5
VPHYS2100
p4618
sa(dp4619
g2
(lp4620
V6476741
p4621
asg5
VPHYS2140
p4622
sa(dp4623
g2
(lp4624
V6476742
p4625
asg5
VPHYS2300
p4626
sa(dp4627
g2
(lp4628
V6476743
p4629
asg5
VPLSH0150
p4630
sa(dp4631
g2
(lp4632
V6541604
p4633
asg5
VPLSH0200
p4634
sa(dp4635
g2
(lp4636
V6476744
p4637
asg5
VPOBS0110
p4638
sa(dp4639
g2
(lp4640
V6476745
p4641
asg5
VPOBS0200
p4642
sa(dp4643
g2
(lp4644
V6476746
p4645
asg5
VPOBS0400
p4646
sa(dp4647
g2
(lp4648
V6476747
p4649
asg5
VPOBS0620
p4650
sa(dp4651
g2
(lp4652
V6477043
p4653
asg5
VPOBS1090
p4654
sa(dp4655
g2
(lp4656
V6476748
p4657
asg5
VPOBS1600P
p4658
sa(dp4659
g2
(lp4660
V6476749
p4661
asg5
VPOBS1600S
p4662
sa(dp4663
g2
(lp4664
V6476750
p4665
asg5
VPOBS1720
p4666
sa(dp4667
g2
(lp4668
V6476751
p4669
asg5
VPOBS1740
p4670
sa(dp4671
g2
(lp4672
V6617714
p4673
asg5
VPOBS1750
p4674
sa(dp4675
g2
(lp4676
V6476752
p4677
asg5
VPOBS1800F
p4678
sa(dp4679
g2
(lp4680
V6617715
p4681
asg5
VPOBS2020A
p4682
sa(dp4683
g2
(lp4684
V6604388
p4685
asg5
VPOBS2020A-2
p4686
sa(dp4687
g2
(lp4688
V6617716
p4689
asg5
VPOBS2020E
p4690
sa(dp4691
g2
(lp4692
V6476753
p4693
asg5
VPOBS2120A
p4694
sa(dp4695
g2
(lp4696
V6476754
p4697
asg5
VPOBS2500G
p4698
sa(dp4699
g2
(lp4700
V6476755
p4701
asg5
VPOBS2600B
p4702
sa(dp4703
g2
(lp4704
V6476756
p4705
asg5
VPOBS2600R
p4706
sa(dp4707
g2
(lp4708
V6476757
p4709
asg5
VPOLS0010
p4710
sa(dp4711
g2
(lp4712
V6476758
p4713
asg5
VPOLS0200
p4714
sa(dp4715
g2
(lp4716
V6476759
p4717
asg5
VPOLS0220
p4718
sa(dp4719
g2
(lp4720
V6476760
p4721
asg5
VPOLS1045
p4722
sa(dp4723
g2
(lp4724
V6476761
p4725
asg5
VPOLS1050
p4726
sa(dp4727
g2
(lp4728
V6476762
p4729
asg5
VPOLS1260
p4730
sa(dp4731
g2
(lp4732
V6476764
p4733
asg5
VPOLS1280
p4734
sa(dp4735
g2
(lp4736
V6581841
p4737
asg5
VPOLS1285
p4738
sa(dp4739
g2
(lp4740
V6476765
p4741
asg5
VPOLS1290
p4742
sa(dp4743
g2
(lp4744
V6476766
p4745
asg5
VPOLS1315
p4746
sa(dp4747
g2
(lp4748
V6476767
p4749
asg5
VPOLS1390
p4750
sa(dp4751
g2
(lp4752
V6591077
p4753
asg5
VPOLS1485
p4754
sa(dp4755
g2
(lp4756
V6476768
p4757
asg5
VPOLS1560
p4758
sa(dp4759
g2
(lp4760
V6476769
p4761
asg5
VPOLS1780
p4762
sa(dp4763
g2
(lp4764
V6476770
p4765
asg5
VPOLS1820J
p4766
sa(dp4767
g2
(lp4768
V6476771
p4769
asg5
VPOLS1821G
p4770
sa(dp4771
g2
(lp4772
V6476772
p4773
asg5
VPOLS1821J
p4774
sa(dp4775
g2
(lp4776
V6476773
p4777
asg5
VPOLS1822H
p4778
sa(dp4779
g2
(lp4780
V6476774
p4781
asg5
VPOLS1822U
p4782
sa(dp4783
g2
(lp4784
V6476775
p4785
asg5
VPOLS1822X
p4786
sa(dp4787
g2
(lp4788
V6476776
p4789
asg5
VPOLS1823F
p4790
sa(dp4791
g2
(lp4792
V6476777
p4793
asg5
VPOLS1823G
p4794
sa(dp4795
g2
(lp4796
V6476778
p4797
asg5
VPOLS1823I
p4798
sa(dp4799
g2
(lp4800
V6476779
p4801
asg5
VPOLS1823J
p4802
sa(dp4803
g2
(lp4804
V6534126
p4805
aV6617717
p4806
asg5
VPOLS1823K
p4807
sa(dp4808
g2
(lp4809
V6476780
p4810
asg5
VPOLS1823Q
p4811
sa(dp4812
g2
(lp4813
V6476781
p4814
asg5
VPOLS1920
p4815
sa(dp4816
g2
(lp4817
V6476782
p4818
asg5
VPOLS2051
p4819
sa(dp4820
g2
(lp4821
V6476783
p4822
asg5
VPOLS2140
p4823
sa(dp4824
g2
(lp4825
V6476784
p4826
asg5
VPOLS2170
p4827
sa(dp4828
g2
(lp4829
V6476785
p4830
asg5
VPOLS2220
p4831
sa(dp4832
g2
(lp4833
V6581842
p4834
asg5
VPOLS2260
p4835
sa(dp4836
g2
(lp4837
V6476786
p4838
asg5
VPOLS2320
p4839
sa(dp4840
g2
(lp4841
V6476787
p4842
asg5
VPOLS2360
p4843
sa(dp4844
g2
(lp4845
V6662824
p4846
asg5
VPOLS2380
p4847
sa(dp4848
g2
(lp4849
V6476788
p4850
asg5
VPOLS2580
p4851
sa(dp4852
g2
(lp4853
V6617718
p4854
asg5
VPOLS2971
p4855
sa(dp4856
g2
(lp4857
V6476789
p4858
asg5
VPPAI0100
p4859
sa(dp4860
g2
(lp4861
V6476790
p4862
asg5
VPPAI1200
p4863
sa(dp4864
g2
(lp4865
V6476791
p4866
asg5
VPPAI1700F
p4867
sa(dp4868
g2
(lp4869
V6476792
p4870
asg5
VPPAI1700J
p4871
sa(dp4872
g2
(lp4873
V6476793
p4874
asg5
VPPAI1700K
p4875
sa(dp4876
g2
(lp4877
V6476794
p4878
asg5
VPPAI1701H
p4879
sa(dp4880
g2
(lp4881
V6476795
p4882
asg5
VPPAI1701J
p4883
sa(dp4884
g2
(lp4885
V6476796
p4886
asg5
VPPAI1701K
p4887
sa(dp4888
g2
(lp4889
V6476797
p4890
asg5
VPPAI1701O
p4891
sa(dp4892
g2
(lp4893
V6476798
p4894
asg5
VPPAI1701P
p4895
sa(dp4896
g2
(lp4897
V6476799
p4898
asg5
VPPAI1701Q
p4899
sa(dp4900
g2
(lp4901
V6591078
p4902
asg5
VPPAI1701Y
p4903
sa(dp4904
g2
(lp4905
V6476800
p4906
asg5
VPPAI1910
p4907
sa(dp4908
g2
(lp4909
V6476801
p4910
asg5
VPPAI1991
p4911
sa(dp4912
g2
(lp4913
V6476802
p4914
asg5
VPPAI2035
p4915
sa(dp4916
g2
(lp4917
V6476803
p4918
asg5
VPPAI2040
p4919
sa(dp4920
g2
(lp4921
V6476804
p4922
asg5
VPPAI2150
p4923
sa(dp4924
g2
(lp4925
V6581843
p4926
asg5
VPPAI2350
p4927
sa(dp4928
g2
(lp4929
V6476805
p4930
asg5
VPPAI2540
p4931
sa(dp4932
g2
(lp4933
V6476806
p4934
asg5
VPPAI2600
p4935
sa(dp4936
g2
(lp4937
V6679628
p4938
asg5
VPPAI2655
p4939
sa(dp4940
g2
(lp4941
V6476807
p4942
asg5
VPPAI2700
p4943
sa(dp4944
g2
(lp4945
V6476808
p4946
asg5
VPPAI2755
p4947
sa(dp4948
g2
(lp4949
V6476809
p4950
asg5
VPPAI2800
p4951
sa(dp4952
g2
(lp4953
V6476810
p4954
asg5
VPPAI2900
p4955
sa(dp4956
g2
(lp4957
V6476811
p4958
asg5
VPRSN0200
p4959
sa(dp4960
g2
(lp4961
V6476812
p4962
asg5
VPRSN0400
p4963
sa(dp4964
g2
(lp4965
V6476813
p4966
asg5
VPRSN0600
p4967
sa(dp4968
g2
(lp4969
V6476814
p4970
asg5
VPRSN1200
p4971
sa(dp4972
g2
(lp4973
V6581844
p4974
asg5
VRELS0056
p4975
sa(dp4976
g2
(lp4977
V6476815
p4978
asg5
VRELS0080
p4979
sa(dp4980
g2
(lp4981
V6476816
p4982
asg5
VRELS0090H
p4983
sa(dp4984
g2
(lp4985
V6476817
p4986
asg5
VRELS0100
p4987
sa(dp4988
g2
(lp4989
V6476818
p4990
asg5
VRELS0260
p4991
sa(dp4992
g2
(lp4993
V6476819
p4994
asg5
VRELS0410
p4995
sa(dp4996
g2
(lp4997
V6476820
p4998
asg5
VRELS0600
p4999
sa(dp5000
g2
(lp5001
V6476821
p5002
asg5
VRELS0750
p5003
sa(dp5004
g2
(lp5005
V6476822
p5006
asg5
VRELS0820
p5007
sa(dp5008
g2
(lp5009
V6476823
p5010
asg5
VRELS0911
p5011
sa(dp5012
g2
(lp5013
V6476824
p5014
asg5
VRELS1000
p5015
sa(dp5016
g2
(lp5017
V6476825
p5018
asg5
VRELS1130
p5019
sa(dp5020
g2
(lp5021
V6581845
p5022
asg5
VRELS1380A
p5023
sa(dp5024
g2
(lp5025
V6476826
p5026
asg5
VRELS1385
p5027
sa(dp5028
g2
(lp5029
V6476827
p5030
asg5
VRELS1390
p5031
sa(dp5032
g2
(lp5033
V6534127
p5034
asg5
VRELS1625
p5035
sa(dp5036
g2
(lp5037
V6541993
p5038
asg5
VRELS1720
p5039
sa(dp5040
g2
(lp5041
V6476828
p5042
asg5
VRELS2100H
p5043
sa(dp5044
g2
(lp5045
V6476829
p5046
asg5
VRELS2110B
p5047
sa(dp5048
g2
(lp5049
V6476830
p5050
asg5
VRELS2350A
p5051
sa(dp5052
g2
(lp5053
V6476831
p5054
asg5
VRELS2400G
p5055
sa(dp5056
g2
(lp5057
V6479656
p5058
asg5
VRISDAPPAR-2494-01
p5059
sa(dp5060
g2
(lp5061
V6479660
p5062
asg5
VRISDAPPAR-3121-01
p5063
sa(dp5064
g2
(lp5065
V6479661
p5066
asg5
VRISDAPPAR-3123-01
p5067
sa(dp5068
g2
(lp5069
V6479657
p5070
asg5
VRISDAPPAR-3133-01
p5071
sa(dp5072
g2
(lp5073
V6479658
p5074
asg5
VRISDAPPAR-3135-01
p5075
sa(dp5076
g2
(lp5077
V6479659
p5078
asg5
VRISDAPPAR-3141-01
p5079
sa(dp5080
g2
(lp5081
V6479669
p5082
asg5
VRISDARCH-2047-01
p5083
sa(dp5084
g2
(lp5085
V6479664
p5086
asg5
VRISDARCH-2102-01
p5087
sa(dp5088
g2
(lp5089
V6479663
p5090
asg5
VRISDARCH-2142-01
p5091
sa(dp5092
g2
(lp5093
V6479672
p5094
asg5
VRISDARCH-2153-01
p5095
sa(dp5096
g2
(lp5097
V6479665
p5098
asg5
VRISDARCH-2155-01
p5099
sa(dp5100
g2
(lp5101
V6479667
p5102
asg5
VRISDARCH-2158-01
p5103
sa(dp5104
g2
(lp5105
V6479670
p5106
asg5
VRISDARCH-2191-01
p5107
sa(dp5108
g2
(lp5109
V6479666
p5110
asg5
VRISDARCH-2198-01
p5111
sa(dp5112
g2
(lp5113
V6479662
p5114
asg5
VRISDARCH-21ST
p5115
sa(dp5116
g2
(lp5117
V6479671
p5118
asg5
VRISDARCH-H652-01
p5119
sa(dp5120
g2
(lp5121
V6479934
p5122
asg5
VRISDCER-4105-01
p5123
sa(dp5124
g2
(lp5125
V6479927
p5126
asg5
VRISDCER-4106-01
p5127
sa(dp5128
g2
(lp5129
V6479931
p5130
asg5
VRISDCER-4108-01
p5131
sa(dp5132
g2
(lp5133
V6479929
p5134
asg5
VRISDCER-411G-01
p5135
sa(dp5136
g2
(lp5137
V6479933
p5138
asg5
VRISDCER-4122-01
p5139
sa(dp5140
g2
(lp5141
V6479928
p5142
asg5
VRISDCER-4132-01
p5143
sa(dp5144
g2
(lp5145
V6479930
p5146
asg5
VRISDCER-415G-01
p5147
sa(dp5148
g2
(lp5149
V6479932
p5150
asg5
VRISDCER-4198-01
p5151
sa(dp5152
g2
(lp5153
V6551397
p5154
asg5
VRISDENGL-E255-01
p5155
sa(dp5156
g2
(lp5157
V6652712
p5158
asg5
VRISDENGL-E288-01
p5159
sa(dp5160
g2
(lp5161
V6551398
p5162
asg5
VRISDENGL-E326-01
p5163
sa(dp5164
g2
(lp5165
V6479935
p5166
asg5
VRISDFAV-5108-01
p5167
sa(dp5168
g2
(lp5169
V6480101
p5170
asg5
VRISDFAV-5110-01
p5171
sa(dp5172
g2
(lp5173
V6480100
p5174
asg5
VRISDFAV-5115-01
p5175
sa(dp5176
g2
(lp5177
V6479938
p5178
asg5
VRISDFAV-5118-01
p5179
sa(dp5180
g2
(lp5181
V6480102
p5182
asg5
VRISDFAV-5121-01
p5183
sa(dp5184
g2
(lp5185
V6479936
p5186
asg5
VRISDFAV-5123-01
p5187
sa(dp5188
g2
(lp5189
V6480103
p5190
asg5
VRISDFAV-5125-01
p5191
sa(dp5192
g2
(lp5193
V6479937
p5194
asg5
VRISDFAV-5130-01
p5195
sa(dp5196
g2
(lp5197
V6479940
p5198
asg5
VRISDFAV-5131-01
p5199
sa(dp5200
g2
(lp5201
V6479939
p5202
asg5
VRISDFAV-5192-01
p5203
sa(dp5204
g2
(lp5205
V6662714
p5206
asg5
VRISDGRAD-046G-01
p5207
sa(dp5208
g2
(lp5209
V6550679
p5210
asg5
VRISDHAVC-C221-01
p5211
sa(dp5212
g2
(lp5213
V6686821
p5214
asg5
VRISDHAVC-C519-01
p5215
sa(dp5216
g2
(lp5217
V6686822
p5218
asg5
VRISDHAVC-C726-01
p5219
sa(dp5220
g2
(lp5221
V6662715
p5222
asg5
VRISDHPSS-S101-01
p5223
sa(dp5224
g2
(lp5225
V6589030
p5226
asg5
VRISDHPSS-S101-08
p5227
sa(dp5228
g2
(lp5229
V6550677
p5230
asg5
VRISDHPSS-S101-19
p5231
sa(dp5232
g2
(lp5233
V6698340
p5234
asg5
VRISDHPSS-S101-23
p5235
sa(dp5236
g2
(lp5237
V6704931
p5238
asg5
VRISDHPSS-S101-6
p5239
sa(dp5240
g2
(lp5241
V6688112
p5242
asg5
VRISDHPSS-S726-01
p5243
sa(dp5244
g2
(lp5245
V6706882
p5246
asg5
VRISDHVAC-H102-11
p5247
sa(dp5248
g2
(lp5249
V6706881
p5250
asg5
VRISDHVAC-H734-01
p5251
sa(dp5252
g2
(lp5253
V6479668
p5254
asg5
VRISDLAEL-LE22-01
p5255
sa(dp5256
g2
(lp5257
V6600307
p5258
asg5
VRISDLAEL-LE38-01/02
p5259
sa(dp5260
g2
(lp5261
V6550678
p5262
asg5
VRISDLAS-C221-01
p5263
sa(dp5264
g2
(lp5265
V6705190
p5266
asg5
VRISDLAS-E101
p5267
sa(dp5268
g2
(lp5269
V6706372
p5270
asg5
VRISDLAS-E206-01
p5271
sa(dp5272
g2
(lp5273
V6550680
p5274
asg5
VRISDLAS-E212-01
p5275
sa(dp5276
g2
(lp5277
V6698339
p5278
asg5
VRISDLAS-E254-01
p5279
sa(dp5280
g2
(lp5281
V6685437
p5282
asg5
VRISDLAS-E267-01
p5283
sa(dp5284
g2
(lp5285
V6706373
p5286
asg5
VRISDLAS-E722-01
p5287
sa(dp5288
g2
(lp5289
V6550676
p5290
asg5
VRISDTEXT-4802-01/2
p5291
sa(dp5292
g2
(lp5293
V6476832
p5294
asg5
VRUSS0110
p5295
sa(dp5296
g2
(lp5297
V6476833
p5298
aV6476834
p5299
asg5
VRUSS0200
p5300
sa(dp5301
g2
(lp5302
V6476835
p5303
asg5
VRUSS0400
p5304
sa(dp5305
g2
(lp5306
V6476836
p5307
asg5
VRUSS0600
p5308
sa(dp5309
g2
(lp5310
V6477044
p5311
asg5
VRUSS1000
p5312
sa(dp5313
g2
(lp5314
V6476837
p5315
asg5
VRUSS1120
p5316
sa(dp5317
g2
(lp5318
V6476838
p5319
asg5
VRUSS1200
p5320
sa(dp5321
g2
(lp5322
V6476839
p5323
asg5
VRUSS1340
p5324
sa(dp5325
g2
(lp5326
V6541606
p5327
asg5
VRUSS1400
p5328
sa(dp5329
g2
(lp5330
V6476840
p5331
asg5
VRUSS1860
p5332
sa(dp5333
g2
(lp5334
V6476841
p5335
asg5
VRUSS2720D
p5336
sa(dp5337
g2
(lp5338
V6476842
p5339
asg5
VSANS0200
p5340
sa(dp5341
g2
(lp5342
V6476843
p5343
asg5
VSANS0400
p5344
sa(dp5345
g2
(lp5346
V6476844
p5347
asg5
VSANS1080
p5348
sa(dp5349
g2
(lp5350
V6476845
p5351
asg5
VSCSO0700B
p5352
sa(dp5353
g2
(lp5354
V6476846
p5355
asg5
VSCSO1000
p5356
sa(dp5357
g2
(lp5358
V6547162
p5359
asg5
VSCSO1700N
p5360
sa(dp5361
g2
(lp5362
V6476847
p5363
aV6629870
p5364
asg5
VSIGN0200
p5365
sa(dp5366
g2
(lp5367
V6476848
p5368
asg5
VSIGN0400
p5369
sa(dp5370
g2
(lp5371
V6541607
p5372
asg5
VSLAV1310
p5373
sa(dp5374
g2
(lp5375
V6604387
p5376
asg5
VSLAV1350
p5377
sa(dp5378
g2
(lp5379
V6476849
p5380
asg5
VSLAV1790
p5381
sa(dp5382
g2
(lp5383
V6476850
p5384
asg5
VSOC0010
p5385
sa(dp5386
g2
(lp5387
V6476851
p5388
asg5
VSOC0170
p5389
sa(dp5390
g2
(lp5391
V6476852
p5392
asg5
VSOC0300C
p5393
sa(dp5394
g2
(lp5395
V6476853
p5396
asg5
VSOC0300D
p5397
sa(dp5398
g2
(lp5399
V6476854
p5400
asg5
VSOC0300L
p5401
sa(dp5402
g2
(lp5403
V6476855
p5404
asg5
VSOC1020
p5405
sa(dp5406
g2
(lp5407
V6476856
p5408
asg5
VSOC1100
p5409
sa(dp5410
g2
(lp5411
V6476857
p5412
asg5
VSOC1118
p5413
sa(dp5414
g2
(lp5415
V6476858
p5416
asg5
VSOC1260
p5417
sa(dp5418
g2
(lp5419
V6476859
p5420
asg5
VSOC1270
p5421
sa(dp5422
g2
(lp5423
V6476860
p5424
asg5
VSOC1315
p5425
sa(dp5426
g2
(lp5427
V6476861
p5428
asg5
VSOC1330
p5429
sa(dp5430
g2
(lp5431
V6476862
p5432
asg5
VSOC1620
p5433
sa(dp5434
g2
(lp5435
V6476863
p5436
asg5
VSOC1870E
p5437
sa(dp5438
g2
(lp5439
V6706408
p5440
asg5
VSOC1870Q
p5441
sa(dp5442
g2
(lp5443
V6476864
p5444
asg5
VSOC1870S
p5445
sa(dp5446
g2
(lp5447
V6476865
p5448
asg5
VSOC1871D
p5449
sa(dp5450
g2
(lp5451
V6476866
p5452
asg5
VSOC1871R
p5453
sa(dp5454
g2
(lp5455
V6476867
p5456
asg5
VSOC1871S
p5457
sa(dp5458
g2
(lp5459
V6476868
p5460
asg5
VSOC1871W
p5461
sa(dp5462
g2
(lp5463
V6476869
p5464
asg5
VSOC1950
p5465
sa(dp5466
g2
(lp5467
V6476870
p5468
asg5
VSOC2020
p5469
sa(dp5470
g2
(lp5471
V6476871
p5472
asg5
VSOC2050
p5473
sa(dp5474
g2
(lp5475
V6476872
p5476
asg5
VSOC2090
p5477
sa(dp5478
g2
(lp5479
V6476873
p5480
asg5
VSOC2130
p5481
sa(dp5482
g2
(lp5483
V6476874
p5484
asg5
VSOC2210
p5485
sa(dp5486
g2
(lp5487
V6476875
p5488
asg5
VSOC2230
p5489
sa(dp5490
g2
(lp5491
V6662825
p5492
asg5
VSOC2385
p5493
sa(dp5494
g2
(lp5495
V6476876
p5496
asg5
VSOC2430
p5497
sa(dp5498
g2
(lp5499
V6476877
p5500
asg5
VSOC2960G
p5501
sa(dp5502
g2
(lp5503
V6476878
p5504
asg5
VSOC2960H
p5505
sa(dp5506
g2
(lp5507
V6624169
p5508
asg5
VSOC2960L
p5509
sa(dp5510
g2
(lp5511
V6476879
p5512
asg5
VSOC2960M
p5513
sa(dp5514
g2
(lp5515
V6476880
p5516
aV6476881
p5517
asg5
VTAPS0030
p5518
sa(dp5519
g2
(lp5520
V6591079
p5521
asg5
VTAPS0080
p5522
sa(dp5523
g2
(lp5524
V6476882
p5525
asg5
VTAPS0100
p5526
sa(dp5527
g2
(lp5528
V6476883
p5529
asg5
VTAPS0200
p5530
sa(dp5531
g2
(lp5532
V6476884
p5533
aV6476885
p5534
aV6476886
p5535
aV6476887
p5536
aV6476888
p5537
asg5
VTAPS0220
p5538
sa(dp5539
g2
(lp5540
V6476889
p5541
asg5
VTAPS0230
p5542
sa(dp5543
g2
(lp5544
V6476890
p5545
aV6477045
p5546
asg5
VTAPS0250
p5547
sa(dp5548
g2
(lp5549
V6476891
p5550
asg5
VTAPS0330
p5551
sa(dp5552
g2
(lp5553
V6476892
p5554
asg5
VTAPS0930A
p5555
sa(dp5556
g2
(lp5557
V6477046
p5558
asg5
VTAPS0930F
p5559
sa(dp5560
g2
(lp5561
V6476893
p5562
asg5
VTAPS1000
p5563
sa(dp5564
g2
(lp5565
V6476894
p5566
asg5
VTAPS1160
p5567
sa(dp5568
g2
(lp5569
V6476895
p5570
asg5
VTAPS1210
p5571
sa(dp5572
g2
(lp5573
V6476896
p5574
asg5
VTAPS1240
p5575
sa(dp5576
g2
(lp5577
V6476897
p5578
asg5
VTAPS1250
p5579
sa(dp5580
g2
(lp5581
V6660089
p5582
asg5
VTAPS1280S
p5583
sa(dp5584
g2
(lp5585
V6476898
p5586
asg5
VTAPS1281A
p5587
sa(dp5588
g2
(lp5589
V6476899
p5590
asg5
VTAPS1281V
p5591
sa(dp5592
g2
(lp5593
V6476900
p5594
asg5
VTAPS1300
p5595
sa(dp5596
g2
(lp5597
V6476901
p5598
asg5
VTAPS1320
p5599
sa(dp5600
g2
(lp5601
V6476902
p5602
asg5
VTAPS1340
p5603
sa(dp5604
g2
(lp5605
V6476903
p5606
asg5
VTAPS1360
p5607
sa(dp5608
g2
(lp5609
V6476904
p5610
asg5
VTAPS1370
p5611
sa(dp5612
g2
(lp5613
V6476905
p5614
asg5
VTAPS1380
p5615
sa(dp5616
g2
(lp5617
V6476906
p5618
asg5
VTAPS1500I
p5619
sa(dp5620
g2
(lp5621
V6476907
p5622
asg5
VTAPS1500L
p5623
sa(dp5624
g2
(lp5625
V6477047
p5626
asg5
VTAPS2200M
p5627
sa(dp5628
g2
(lp5629
V6662826
p5630
asg5
VTAPS2300
p5631
sa(dp5632
g2
(lp5633
V6476908
p5634
asg5
VTAPS2310
p5635
sa(dp5636
g2
(lp5637
V6476909
p5638
asg5
VTAPS2500
p5639
sa(dp5640
g2
(lp5641
V6476910
p5642
asg5
VTAPS2550
p5643
sa(dp5644
g2
(lp5645
V6476911
p5646
asg5
VTAPS2560
p5647
sa(dp5648
g2
(lp5649
V6476912
p5650
asg5
VTAPS2570
p5651
sa(dp5652
g2
(lp5653
V6476913
p5654
asg5
VTAPS2580
p5655
sa(dp5656
g2
(lp5657
V6476914
p5658
asg5
VTAPS2650
p5659
sa(dp5660
g2
(lp5661
V6476915
p5662
asg5
VTAPS2660
p5663
sa(dp5664
g2
(lp5665
V6476916
p5666
asg5
VTAPS2670
p5667
sa(dp5668
g2
(lp5669
V6476917
p5670
asg5
VTAPS2680
p5671
sa(dp5672
g2
(lp5673
V6476918
p5674
asg5
VTAPS2700
p5675
sa(dp5676
g2
(lp5677
V6476919
p5678
asg5
VTAPS2750
p5679
sa(dp5680
g2
(lp5681
V6476920
p5682
asg5
VTAPS2760
p5683
sa(dp5684
g2
(lp5685
V6476921
p5686
asg5
VTAPS2770
p5687
sa(dp5688
g2
(lp5689
V6476922
p5690
asg5
VUNIV1000
p5691
sa(dp5692
g2
(lp5693
V6476923
p5694
asg5
VUNIV1520
p5695
sa(dp5696
g2
(lp5697
V6476924
p5698
asg5
VUNIV1700
p5699
sa(dp5700
g2
(lp5701
V6476925
p5702
asg5
VURBN1000
p5703
sa(dp5704
g2
(lp5705
V6476926
p5706
asg5
VURBN1200
p5707
sa(dp5708
g2
(lp5709
V6476927
p5710
asg5
VURBN1300
p5711
sa(dp5712
g2
(lp5713
V6624170
p5714
asg5
VURBN1570
p5715
sa(dp5716
g2
(lp5717
V6476928
p5718
asg5
VURBN1870D
p5719
sa(dp5720
g2
(lp5721
V6581846
p5722
asg5
VURBN1870R
p5723
sa(dp5724
g2
(lp5725
V6581847
p5726
asg5
VURBN1870S
p5727
sa(dp5728
g2
(lp5729
V6476929
p5730
asg5
VURBN1981
p5731
sa(dp5732
g2
(lp5733
V6534128
p5734
asg5
VVISA0061
p5735
sa(dp5736
g2
(lp5737
V6476930
p5738
aV6476931
p5739
aV6476932
p5740
aV6476933
p5741
aV6476934
p5742
aV6476935
p5743
aV6476936
p5744
aV6476937
p5745
aV6591080
p5746
asg5
VVISA0100
p5747
sa(dp5748
g2
(lp5749
V6476938
p5750
aV6476939
p5751
asg5
VVISA0120
p5752
sa(dp5753
g2
(lp5754
V6690900
p5755
asg5
VVISA0130
p5756
sa(dp5757
g2
(lp5758
V6476940
p5759
aV6591081
p5760
asg5
VVISA1120
p5761
sa(dp5762
g2
(lp5763
V6534129
p5764
asg5
VVISA1210A
p5765
sa(dp5766
g2
(lp5767
V6476941
p5768
asg5
VVISA1210G
p5769
sa(dp5770
g2
(lp5771
V6650848
p5772
asg5
VVISA1240
p5773
sa(dp5774
g2
(lp5775
V6476942
p5776
asg5
VVISA1250
p5777
sa(dp5778
g2
(lp5779
V6476943
p5780
asg5
VVISA1310
p5781
sa(dp5782
g2
(lp5783
V6476944
p5784
asg5
VVISA1320
p5785
sa(dp5786
g2
(lp5787
V6581848
p5788
asg5
VVISA1330
p5789
sa(dp5790
g2
(lp5791
V6476945
p5792
asg5
VVISA1420
p5793
sa(dp5794
g2
(lp5795
V6476946
p5796
asg5
VVISA1510
p5797
sa(dp5798
g2
(lp5799
V6476947
p5800
asg5
VVISA1520
p5801
sa(dp5802
g2
(lp5803
V6624171
p5804
asg5
VVISA1710
p5805
sa(dp5806
g2
(lp5807
V6476948
p5808
asg5
VVISA1800L
p5809
sa(dp5810
g2
(lp5811
V6476949
p5812
asg5
VVISA1800N
p5813
sa(dp5814
g2
(lp5815
V6591082
p5816
asg5
VVISA1800O
p5817
sa(dp5818
g2
(lp5819
V6476950
p5820
asg5
VVISA1800P
p5821
sa(dp5822
g2
(lp5823
V6688030
p5824
asg5
VWAYLAND1
p5825
sa.